0100 B409			MOV	AH,9
0102 BAA928			MOV	DX,OFFSET AMSG
0105 CD21			INT	21H
0107 B430			MOV	AH,30H
0109 CD21			INT	21H
010B 84C0			TEST	AL,AL
010D 7509			JNZ	MAIN
010F B409			MOV	AH,9
0111 BAFA28			MOV	DX,OFFSET DOSERR
0114 CD21			INT	21H
0116 CD20			INT	20H
0118 E89700		MAIN:	CALL	CMDLIN
011B 7309			JNC	CORE
011D B409			MOV	AH,9
011F BACD28			MOV	DX,OFFSET USAGE
0122 CD21			INT	21H
0124 CD20			INT	20H
0126 BABA27		CORE:	MOV	DX,OFFSET DOTASM
0129 BBBE27			MOV	BX,OFFSET DOTCOM
012C A11629			MOV	AX,[FUNC]
012F A98080			TEST	AX,8080H
0132 7402			JZ	CORE1
0134 87D3			XCHG	DX,BX
0136 8BF2		CORE1:	MOV	SI,DX
0138 BF2E29			MOV	DI,OFFSET INFILE
013B F8				CLC
013C E83601			CALL	ADDEXT
013F 8BF3			MOV	SI,BX
0141 BF6E29			MOV	DI,OFFSET OUTFILE
0144 F8				CLC
0145 E82D01			CALL	ADDEXT
0148 BEC227			MOV	SI,OFFSET DOTLST
014B BF8E29			MOV	DI,OFFSET LSTFILE
014E F8				CLC
014F E82301			CALL	ADDEXT
0152 BFAE2B			MOV	DI,OFFSET TEMP
0155 BEC627			MOV	SI,OFFSET INM
0158 E8720A			CALL	WRM
015B BE2E29			MOV	SI,OFFSET INFILE
015E E86C0A			CALL	WRM
0161 E83601			CALL	CRLF
0164 E84101		PROC:	CALL	PROCF
0167 7234			JC	OUTC
0169 A11229			MOV	AX,[ERRS]
016C 85C0			TEST	AX,AX
016E 7532			JNZ	ERRORS
0170 A11629			MOV	AX,[FUNC]
0173 50				PUSH	AX
0174 32C0			XOR	AL,AL
0176 86C4			XCHG	AL,AH
0178 A31629			MOV	[FUNC],AX
017B 85C0			TEST	AX,AX
017D 58				POP	AX
017E 75E4			JNZ	PROC
0180 BFAE2B			MOV	DI,OFFSET TEMP
0183 BECB27			MOV	SI,OFFSET OUTM
0186 E8440A			CALL	WRM
0189 BE6E29			MOV	SI,OFFSET OUTFILE
018C E83E0A			CALL	WRM
018F A840			TEST	AL,40H
0191 740A			JZ	OUTC
0193 B82C20			MOV	AX,202CH
0196 AB				STOSW
0197 BE8E29			MOV	SI,OFFSET LSTFILE
019A E8300A			CALL	WRM
019D E8FA00		OUTC:	CALL	CRLF
01A0 CD20			INT	20H
01A2 F606162908		ERRORS:	TEST	BYTE PTR [FUNC],8
01A7 7407			JZ	ERR0
01A9 B441			MOV	AH,41H
01AB BA6F29			MOV	DX,OFFSET OUTFILE+1
01AE CD21			INT	21H
01B0 CD20		ERR0:	INT	20H
01B2 32C0		CMDLIN:	XOR	AL,AL
01B4 A22E29			MOV	[INFILE],AL
01B7 A26E29			MOV	[OUTFILE],AL
01BA A28E29			MOV	[LSTFILE],AL
01BD B8050E			MOV	AX,0E05H
01C0 A31629			MOV	[FUNC],AX
01C3 BE8100			MOV	SI,81H
01C6 BFAE2B		PARAM:	MOV	DI,OFFSET TEMP
01C9 E88000			CALL	GETFN
01CC 7432			JZ	PARAM2
01CE A1AE2B			MOV	AX,[TEMP]
01D1 3D022F			CMP	AX,2F02H
01D4 7450			JZ	PARAM5
01D6 BF2E29			MOV	DI,OFFSET INFILE
01D9 8A05			MOV	AL,[DI]
01DB 84C0			TEST	AL,AL
01DD 7414			JZ	PARAM1
01DF BF6E29			MOV	DI,OFFSET OUTFILE
01E2 8A05			MOV	AL,[DI]
01E4 84C0			TEST	AL,AL
01E6 740B			JZ	PARAM1
01E8 BF8E29			MOV	DI,OFFSET LSTFILE
01EB 8A05			MOV	AL,[DI]
01ED 84C0			TEST	AL,AL
01EF 7402			JZ	PARAM1
01F1 F9			PARAM0:	STC
01F2 C3				RET
01F3 56			PARAM1:	PUSH	SI
01F4 BEAE2B			MOV	SI,OFFSET TEMP
01F7 A4				MOVSB
01F8 4E				DEC	SI
01F9 E8D109			CALL	WRM
01FC A4				MOVSB
01FD 5E				POP	SI
01FE EBC6			JMP	SHORT PARAM
0200 A02E29		PARAM2:	MOV	AL,[INFILE]
0203 84C0			TEST	AL,AL
0205 74EA			JZ	PARAM0
0207 BF6E29			MOV	DI,OFFSET OUTFILE
020A E80300			CALL	PARAM3
020D BF8E29			MOV	DI,OFFSET LSTFILE
0210 8A05		PARAM3:	MOV	AL,[DI]
0212 84C0			TEST	AL,AL
0214 750E			JNZ	PARAM4
0216 BE2E29			MOV	SI,OFFSET INFILE
0219 57				PUSH	DI
021A A4				MOVSB
021B 4E				DEC	SI
021C E8AE09			CALL	WRM
021F 5F				POP	DI
0220 F9				STC
0221 E85100			CALL	ADDEXT
0224 F8			PARAM4:	CLC
0225 C3				RET
0226 A0B02B		PARAM5:	MOV	AL,[TEMP+2]
0229 3C44			CMP	AL,44H
022B 7406			JZ	PDIS
022D 3C4C			CMP	AL,4CH
022F 740B			JZ	PLST
0231 F9				STC
0232 C3				RET
0233 B88C00		PDIS:	MOV	AX,8CH
0236 A31629			MOV	[FUNC],AX
0239 E98AFF			JMP	PARAM
023C A11629		PLST:	MOV	AX,[FUNC]
023F 84E4			TEST	AH,AH
0241 7483			JZ	PARAM
0243 80CC40			OR	AH,40H
0246 A31629			MOV	[FUNC],AX
0249 E97AFF			JMP	PARAM
024C 33C9		GETFN:	XOR	CX,CX
024E 57				PUSH	DI
024F 47				INC	DI
0250 FC				CLD
0251 AC			GETFN1:	LODSB
0252 3C0D			CMP	AL,0DH
0254 7416			JZ	GETFN0
0256 3C21			CMP	AL,21H
0258 720E			JC	GETFN2
025A 3C61			CMP	AL,61H
025C 7206			JC	GETFN3
025E 3C7B			CMP	AL,7BH
0260 7302			JNC	GETFN3
0262 24DF			AND	AL,0DFH
0264 41			GETFN3:	INC	CX
0265 AA				STOSB
0266 EBE9			JMP	SHORT GETFN1
0268 85C9		GETFN2:	TEST	CX,CX
026A 74E5			JZ	GETFN1
026C 4E			GETFN0:	DEC	SI
026D 882D			MOV	[DI],CH
026F 5F				POP	DI
0270 880D			MOV	[DI],CL
0272 85C9			TEST	CX,CX
0274 C3				RET
0275 9F			ADDEXT:	LAHF
0276 FC				CLD
0277 8BEF			MOV	BP,DI
0279 32ED			XOR	CH,CH
027B 8A0D			MOV	CL,[DI]
027D 47				INC	DI
027E B02E			MOV	AL,2EH
0280 F2AE			REPNZ	SCASB
0282 7504			JNZ	ADDXT2
0284 9E				SAHF
0285 7312			JNC	ADDXT0
0287 4F				DEC	DI
0288 9E			ADDXT2:	SAHF
0289 7204			JC	ADDXT1
028B AA				STOSB
028C E83E09			CALL	WRM
028F 882D		ADDXT1:	MOV	[DI],CH
0291 8BC7			MOV	AX,DI
0293 2BC5			SUB	AX,BP
0295 48				DEC	AX
0296 8BFD			MOV	DI,BP
0298 AA				STOSB
0299 C3			ADDXT0:	RET
029A B80D0A		CRLF:	MOV	AX,0A0DH
029D AB				STOSW
029E B82409			MOV	AX,924H
02A1 AA				STOSB
02A2 BAAE2B			MOV	DX,OFFSET TEMP
02A5 CD21			INT	21H
02A7 C3				RET
02A8 F606162904		PROCF:	TEST	BYTE PTR [FUNC],4
02AD 7501			JNZ	PROCF0
02AF C3				RET
02B0 33C0		PROCF0:	XOR	AX,AX
02B2 A30C29			MOV	[PC],AX
02B5 A31029			MOV	[USIZE],AX
02B8 A31229			MOV	[ERRS],AX
02BB A3AE29			MOV	[INCLEV],AX
02BE F606162902			TEST	BYTE PTR [FUNC],2
02C3 7503			JNZ	NOCSYM
02C5 A32E2D			MOV	[SYMBS],AX
02C8 FEC4		NOCSYM:	INC	AH
02CA A31429			MOV	[VORG],AX
02CD 89261A29			MOV	[STK+2],SP
02D1 F606162940			TEST	BYTE PTR [FUNC],40H
02D6 7411			JZ	PROCF1
02D8 B43C			MOV	AH,3CH
02DA 33C9			XOR	CX,CX
02DC BE8E29			MOV	SI,OFFSET LSTFILE
02DF 8BD6			MOV	DX,SI
02E1 42				INC	DX
02E2 CD21			INT	21H
02E4 725F			JC	FFAIL
02E6 A32C29			MOV	[LSTHDL],AX
02E9 F606162908		PROCF1:	TEST	BYTE PTR [FUNC],8
02EE 7411			JZ	PROCF2
02F0 B43C			MOV	AH,3CH
02F2 33C9			XOR	CX,CX
02F4 BE6E29			MOV	SI,OFFSET OUTFILE
02F7 8BD6			MOV	DX,SI
02F9 42				INC	DX
02FA CD21			INT	21H
02FC 7247			JC	FFAIL
02FE A32A29			MOV	[OUTHDL],AX
0301 BE2E29		PROCF2:	MOV	SI,OFFSET INFILE
0304 E81601			CALL	INCF
0307 723C			JC	FFAIL
0309 E84901		ASMFL:	CALL	RD
030C 7247			JC	ASMF0
030E E80B02			CALL	ASM
0311 731F			JNC	ASMNER
0313 E884FF			CALL	CRLF
0316 F606162940			TEST	BYTE PTR [FUNC],40H
031B 7415			JZ	ASMNER
031D 4F				DEC	DI
031E BE8E29			MOV	SI,OFFSET LSTFILE
0321 B440			MOV	AH,40H
0323 8BCF			MOV	CX,DI
0325 BAAE2B			MOV	DX,OFFSET TEMP
0328 2BCA			SUB	CX,DX
032A 8B1E2C29			MOV	BX,[LSTHDL]
032E CD21			INT	21H
0330 7213			JC	FFAIL
0332 E84500		ASMNER:	CALL	LLST
0335 E88D01			CALL	WR
0338 73CF			JNC	ASMFL
033A E80501		ASMCL:	CALL	DECF
033D 73FB			JNC	ASMCL
033F E81800			CALL	CLOSF
0342 BE6E29			MOV	SI,OFFSET OUTFILE
0345 BFAE2B		FFAIL:	MOV	DI,OFFSET TEMP
0348 56				PUSH	SI
0349 BE8328			MOV	SI,OFFSET EMB
034C E87E08			CALL	WRM
034F 5E				POP	SI
0350 E87A08			CALL	WRM
0353 F9				STC
0354 C3				RET
0355 E8EA00		ASMF0:	CALL	DECF
0358 73AF			JNC	ASMFL
035A F606162940		CLOSF:	TEST	BYTE PTR [FUNC],40H
035F 7408			JZ	CLOSF1
0361 B43E			MOV	AH,3EH
0363 8B1E2C29			MOV	BX,[LSTHDL]
0367 CD21			INT	21H
0369 F606162908		CLOSF1:	TEST	BYTE PTR [FUNC],8
036E 7408			JZ	CLOSF0
0370 B43E			MOV	AH,3EH
0372 8B1E2A29			MOV	BX,[OUTHDL]
0376 CD21			INT	21H
0378 F8			CLOSF0:	CLC
0379 C3				RET
037A F606162940		LLST:	TEST	BYTE PTR [FUNC],40H
037F 7451			JZ	LLST0
0381 BEAE2C			MOV	SI,OFFSET OUTPUT
0384 BFAE2B			MOV	DI,OFFSET TEMP
0387 FC				CLD
0388 32E4			XOR	AH,AH
038A AC				LODSB
038B 8BE8			MOV	BP,AX
038D A02E2C			MOV	AL,[INPUT]
0390 91				XCHG	AX,CX
0391 E336			JCXZ	LLST3
0393 51				PUSH	CX
0394 E83C00			CALL	LLWB
0397 B92000			MOV	CX,20H
039A 8BC7			MOV	AX,DI
039C 2DAE2B			SUB	AX,OFFSET TEMP
039F 2BC8			SUB	CX,AX
03A1 D1E9			SHR	CX,1
03A3 D1E9			SHR	CX,1
03A5 D1E9			SHR	CX,1
03A7 B009			MOV	AL,9
03A9 F3AA			REPZ	STOSB
03AB 59				POP	CX
03AC 56				PUSH	SI
03AD BE2F2C			MOV	SI,OFFSET INPUT+1
03B0 F3A4			REPZ	MOVSB
03B2 5E				POP	SI
03B3 BAAE2B		LLST2:	MOV	DX,OFFSET TEMP
03B6 8BCF			MOV	CX,DI
03B8 B440			MOV	AH,40H
03BA 8B1E2C29			MOV	BX,[LSTHDL]
03BE 2BCA			SUB	CX,DX
03C0 CD21			INT	21H
03C2 85ED			TEST	BP,BP
03C4 740C			JZ	LLST0
03C6 BFAE2B			MOV	DI,OFFSET TEMP
03C9 E80700		LLST3:	CALL	LLWB
03CC B80D0A			MOV	AX,0A0DH
03CF AB				STOSW
03D0 EBE1			JMP	SHORT LLST2
03D2 C3			LLST0:	RET
03D3 A10E29		LLWB:	MOV	AX,[PC+2]
03D6 03061429			ADD	AX,[VORG]
03DA 50				PUSH	AX
03DB 8AC4			MOV	AL,AH
03DD E8390F			CALL	HALX
03E0 58				POP	AX
03E1 E8350F			CALL	HALX
03E4 B020			MOV	AL,20H
03E6 AA				STOSB
03E7 85ED			TEST	BP,BP
03E9 7415			JZ	LLWB0
03EB B90800			MOV	CX,8
03EE 3BCD			CMP	CX,BP
03F0 7202			JC	LLWB1
03F2 8BCD			MOV	CX,BP
03F4 010E0E29		LLWB1:	ADD	[PC+2],CX
03F8 2BE9			SUB	BP,CX
03FA AC			LLWB2:	LODSB
03FB E81B0F			CALL	HALX
03FE E2FA			LOOP	LLWB2
0400 C3			LLWB0:	RET
0401 F606162904		CALF:	TEST	BYTE PTR [FUNC],4
0406 7413			JZ	CALF0
0408 A1AE29			MOV	AX,[INCLEV]
040B 85C0			TEST	AX,AX
040D 740C			JZ	CALF0
040F 48				DEC	AX
0410 86C4			XCHG	AL,AH
0412 D1E8			SHR	AX,1
0414 D1E8			SHR	AX,1
0416 05B029			ADD	AX,OFFSET INCLEV+2
0419 F8				CLC
041A C3				RET
041B F9			CALF0:	STC
041C C3				RET
041D FF06AE29		INCF:	INC	WORD PTR [INCLEV]
0421 E8DDFF			CALL	CALF
0424 7216			JC	INCF0
0426 BF003D			MOV	DI,3D00H
0429 8BD6			MOV	DX,SI
042B 97				XCHG	AX,DI
042C 42				INC	DX
042D CD21			INT	21H
042F 720B			JC	INCF0
0431 AB				STOSW
0432 33C0			XOR	AX,AX
0434 AB				STOSW
0435 A4				MOVSB
0436 4E				DEC	SI
0437 E89307			CALL	WRM
043A F8				CLC
043B C3				RET
043C FF0EAE29		INCF0:	DEC	WORD PTR [INCLEV]
0440 F9				STC
0441 C3				RET
0442 E8BCFF		DECF:	CALL	CALF
0445 720D			JC	DECF0
0447 8BF0			MOV	SI,AX
0449 B43E			MOV	AH,3EH
044B 8B1C			MOV	BX,[SI]
044D CD21			INT	21H
044F FF0EAE29			DEC	WORD PTR [INCLEV]
0453 F8				CLC
0454 C3			DECF0:	RET
0455 E8A9FF		RD:	CALL	CALF
0458 722F			JC	RD0
045A 8BD8			MOV	BX,AX
045C FF4702			INC	WORD PTR [BX+2]
045F 8B1F			MOV	BX,[BX]
0461 BA2F2C			MOV	DX,OFFSET INPUT+1
0464 F606162980			TEST	BYTE PTR [FUNC],80H
0469 741F			JZ	RD1
046B B80042			MOV	AX,4200H
046E 33C9			XOR	CX,CX
0470 52				PUSH	DX
0471 8B160C29			MOV	DX,[PC]
0475 53				PUSH	BX
0476 CD21			INT	21H
0478 5B				POP	BX
0479 5A				POP	DX
047A 720D			JC	RD0
047C B43F			MOV	AH,3FH
047E B108			MOV	CL,8
0480 CD21			INT	21H
0482 7205			JC	RD0
0484 A22E2C			MOV	[INPUT],AL
0487 3C01			CMP	AL,1
0489 C3			RD0:	RET
048A B43F		RD1:	MOV	AH,3FH
048C B97E00			MOV	CX,7EH
048F 8BFA			MOV	DI,DX
0491 53				PUSH	BX
0492 CD21			INT	21H
0494 5B				POP	BX
0495 72F2			JC	RD0
0497 3C01			CMP	AL,1
0499 72EE			JC	RD0
049B 91				XCHG	AX,CX
049C B00D			MOV	AL,0DH
049E FC				CLD
049F F2AE			REPNZ	SCASB
04A1 75E6			JNZ	RD0
04A3 B00A			MOV	AL,0AH
04A5 E306			JCXZ	RD2
04A7 49				DEC	CX
04A8 AE				SCASB
04A9 7403			JZ	RD3
04AB 4F				DEC	DI
04AC 41				INC	CX
04AD AA			RD2:	STOSB
04AE B82E2C		RD3:	MOV	AX,OFFSET INPUT
04B1 97				XCHG	AX,DI
04B2 2BC7			SUB	AX,DI
04B4 48				DEC	AX
04B5 AA				STOSB
04B6 33C0			XOR	AX,AX
04B8 2BC1			SUB	AX,CX
04BA 74CD			JZ	RD0
04BC 99				CWD
04BD B90142			MOV	CX,4201H
04C0 92				XCHG	AX,DX
04C1 91				XCHG	AX,CX
04C2 CD21			INT	21H
04C4 C3				RET
04C5 800EAE2C00		WR:	OR	BYTE PTR [OUTPUT],0
04CA 744F			JZ	WR0
04CC F606162908			TEST	BYTE PTR [FUNC],8
04D1 7443			JZ	WR4
04D3 830E102900			OR	WORD PTR [USIZE],0
04D8 7429			JZ	WR3
04DA BFAE2B			MOV	DI,OFFSET TEMP
04DD B98000			MOV	CX,80H
04E0 32C0			XOR	AL,AL
04E2 FC				CLD
04E3 F3AA			REPZ	STOSB
04E5 B98000		WR1:	MOV	CX,80H
04E8 390E1029			CMP	[USIZE],CX
04EC 7304			JNC	WR2
04EE 8B0E1029			MOV	CX,[USIZE]
04F2 B440		WR2:	MOV	AH,40H
04F4 BAAE2B			MOV	DX,OFFSET TEMP
04F7 8B1E2A29			MOV	BX,[OUTHDL]
04FB CD21			INT	21H
04FD 290E1029			SUB	[USIZE],CX
0501 77E2			JA	WR1
0503 B440		WR3:	MOV	AH,40H
0505 32ED			XOR	CH,CH
0507 8A0EAE2C			MOV	CL,[OUTPUT]
050B BAAF2C			MOV	DX,OFFSET OUTPUT+1
050E 8B1E2A29			MOV	BX,[OUTHDL]
0512 CD21			INT	21H
0514 7205			JC	WR0
0516 33C0		WR4:	XOR	AX,AX
0518 A31029			MOV	[USIZE],AX
051B C3			WR0:	RET
051C A10C29		ASM:	MOV	AX,[PC]
051F A30E29			MOV	[PC+2],AX
0522 33C0			XOR	AX,AX
0524 A2AE2C			MOV	[OUTPUT],AL
0527 89261829			MOV	[STK],SP
052B BF1C29			MOV	DI,OFFSET FLAGS
052E B90E00			MOV	CX,14
0531 FC				CLD
0532 F3AA			REPZ	STOSB
0534 BE2E2C			MOV	SI,OFFSET INPUT
0537 AC				LODSB
0538 84C0			TEST	AL,AL
053A 7447			JZ	DSA0
053C F606162980			TEST	BYTE PTR [FUNC],80H
0541 7442			JZ	ASM1
0543 BFAF2C			MOV	DI,OFFSET OUTPUT+1
0546 8B261829		DSAS:	MOV	SP,[STK]
054A B009			MOV	AL,9
054C AA				STOSB
054D AC				LODSB
054E A22429			MOV	[OPCODE],AL
0551 2401			AND	AL,1
0553 B104			MOV	CL,4
0555 D2E0			SHL	AL,CL
0557 A21D29			MOV	[WADJ],AL
055A A02429			MOV	AL,[OPCODE]
055D 32E4			XOR	AH,AH
055F D1E0			SHL	AX,1
0561 D1E0			SHL	AX,1
0563 05501E			ADD	AX,OFFSET BIN86
0566 E8C210			CALL	CNVTB
0569 E8C40F			CALL	ENDL
056C E8590E			CALL	LFPR
056F E8710E			CALL	LSPR
0572 8BC6			MOV	AX,SI
0574 2D2F2C			SUB	AX,OFFSET INPUT+1
0577 01060C29			ADD	[PC],AX
057B 8BC7			MOV	AX,DI
057D 2DAF2C			SUB	AX,OFFSET OUTPUT+1
0580 A2AE2C			MOV	[OUTPUT],AL
0583 F8			DSA0:	CLC
0584 C3				RET
0585 E8F500		ASM1:	CALL	CC
0588 8BEE			MOV	BP,SI
058A 8B261829		ASML:	MOV	SP,[STK]
058E E8EC00			CALL	CC
0591 7422			JZ	ASM0
0593 BF5918			MOV	DI,OFFSET I8086
0596 E8B601			CALL	SL
0599 7223			JC	NOGOOD
059B A22429			MOV	[OPCODE],AL
059E 800E1C2920			OR	BYTE PTR [FLAGS],20H
05A3 32C0			XOR	AL,AL
05A5 86C4			XCHG	AL,AH
05A7 D1E0			SHL	AX,1
05A9 059226			ADD	AX,OFFSET IHDL
05AC 8BD8			MOV	BX,AX
05AE FF17			CALL	[BX]
05B0 E8CA00			CALL	CC
05B3 7559			JNZ	BADF9
05B5 A01C29		ASM0:	MOV	AL,[FLAGS]
05B8 A8FF			TEST	AL,0FFH
05BA 7557			JNZ	WRB
05BC EB58			JMP	SHORT WRUPD
05BE E8D203		NOGOOD:	CALL	SCREG
05C1 720A			JC	BAD
05C3 E8A503			CALL	GSPR
05C6 7241			JC	BADFC
05C8 E85600			CALL	OUTW
05CB EBBD			JMP	SHORT ASML
05CD 3BEE		BAD:	CMP	BP,SI
05CF 7233			JC	BADF3
05D1 BF2E2D			MOV	DI,OFFSET SYMBS
05D4 E87801			CALL	SL
05D7 720C			JC	BADD
05D9 F606162901			TEST	BYTE PTR [FUNC],1
05DE 7418			JZ	BADX
05E0 B00A			MOV	AL,0AH
05E2 E97E05			JMP	FAIL
05E5 8AC3		BADD:	MOV	AL,BL
05E7 AA				STOSB
05E8 8BCB			MOV	CX,BX
05EA F3A4			REPZ	MOVSB
05EC A10C29			MOV	AX,[PC]
05EF 03061429			ADD	AX,[VORG]
05F3 AB				STOSW
05F4 FF062E2D			INC	WORD PTR [SYMBS]
05F8 E88200		BADX:	CALL	CC
05FB 7407			JZ	BADF3
05FD 3C3A			CMP	AL,3AH
05FF 7589			JNZ	ASML
0601 46				INC	SI
0602 EB86			JMP	SHORT ASML
0604 B003		BADF3:	MOV	AL,3
0606 E95A05			JMP	FAIL
0609 B00C		BADFC:	MOV	AL,0CH
060B E95505			JMP	FAIL
060E B009		BADF9:	MOV	AL,9
0610 E95005			JMP	FAIL
0613 E80B00		WRB:	CALL	OUTW
0616 32E4		WRUPD:	XOR	AH,AH
0618 A0AE2C			MOV	AL,[OUTPUT]
061B 01060C29			ADD	[PC],AX
061F F8				CLC
0620 C3				RET
0621 FC			OUTW:	CLD
0622 56				PUSH	SI
0623 32E4			XOR	AH,AH
0625 A0AE2C			MOV	AL,[OUTPUT]
0628 BFAF2C			MOV	DI,OFFSET OUTPUT+1
062B 03F8			ADD	DI,AX
062D BE2229			MOV	SI,OFFSET FPREF
0630 8A161C29			MOV	DL,[FLAGS]
0634 AC				LODSB
0635 F6C280			TEST	DL,80H
0638 7401			JZ	NOFPR
063A AA				STOSB
063B AC			NOFPR:	LODSB
063C F6C240			TEST	DL,40H
063F 7401			JZ	NOSPR
0641 AA				STOSB
0642 AC			NOSPR:	LODSB
0643 F6C220			TEST	DL,20H
0646 7401			JZ	NOOPC
0648 AA				STOSB
0649 AC			NOOPC:	LODSB
064A F6C210			TEST	DL,10H
064D 7401			JZ	NOMOD
064F AA				STOSB
0650 AD			NOMOD:	LODSW
0651 F6C208			TEST	DL,8
0654 7409			JZ	WNDISP
0656 F6C204			TEST	DL,4
0659 7403			JZ	WBDISP
065B AA				STOSB
065C 8AC4			MOV	AL,AH
065E AA			WBDISP:	STOSB
065F AD			WNDISP:	LODSW
0660 F6C202			TEST	DL,2
0663 7409			JZ	WNIMM
0665 F6C201			TEST	DL,1
0668 7403			JZ	WBIMM
066A AA				STOSB
066B 8AC4			MOV	AL,AH
066D AA			WBIMM:	STOSB
066E 8BC7		WNIMM:	MOV	AX,DI
0670 2DAF2C			SUB	AX,OFFSET OUTPUT+1
0673 A2AE2C			MOV	[OUTPUT],AL
0676 32C0			XOR	AL,AL
0678 A21C29			MOV	[FLAGS],AL
067B 5E				POP	SI
067C C3				RET
067D 33DB		CC:	XOR	BX,BX
067F 8A00		CCM:	MOV	AL,[BX+SI]
0681 3C00			CMP	AL,0
0683 7445			JZ	CCT
0685 3C0D			CMP	AL,0DH
0687 7441			JZ	CCT
0689 3C21			CMP	AL,21H
068B 7249			JC	CCK
068D 3C22			CMP	AL,22H
068F 742F			JZ	CCQ
0691 3C27			CMP	AL,27H
0693 742B			JZ	CCQ
0695 3C2C			CMP	AL,2CH
0697 743D			JZ	CCK
0699 3C30			CMP	AL,30H
069B 7232			JC	CCS
069D 3C3A			CMP	AL,3AH
069F 721C			JC	CCL
06A1 3C3B			CMP	AL,3BH
06A3 7425			JZ	CCT
06A5 3C41			CMP	AL,41H
06A7 7226			JC	CCS
06A9 3C5B			CMP	AL,5BH
06AB 7210			JC	CCL
06AD 3C5F			CMP	AL,5FH
06AF 740C			JZ	CCL
06B1 3C61			CMP	AL,61H
06B3 721A			JC	CCS
06B5 3C7B			CMP	AL,7BH
06B7 7316			JNC	CCS
06B9 24DF			AND	AL,0DFH
06BB 8800			MOV	[BX+SI],AL
06BD 43			CCL:	INC	BX
06BE EBBF			JMP	SHORT CCM
06C0 85DB		CCQ:	TEST	BX,BX
06C2 7506			JNZ	CCT
06C4 43			CCW:	INC	BX
06C5 3800			CMP	[BX+SI],AL
06C7 75FB			JNZ	CCW
06C9 43				INC	BX
06CA 8A04		CCT:	MOV	AL,[SI]
06CC 85DB			TEST	BX,BX
06CE C3				RET
06CF 85DB		CCS:	TEST	BX,BX
06D1 75F7			JNZ	CCT
06D3 43				INC	BX
06D4 EBF4			JMP	SHORT CCT
06D6 85DB		CCK:	TEST	BX,BX
06D8 75F0			JNZ	CCT
06DA 46				INC	SI
06DB EBA2			JMP	SHORT CCM
06DD 2C30		RN:	SUB	AL,48
06DF 7235			JC	RN9
06E1 3C0A			CMP	AL,10
06E3 7331			JNC	RN9
06E5 32E4			XOR	AH,AH
06E7 83FB01			CMP	BX,1
06EA 722A			JC	RN9
06EC 7702			JA	RN1
06EE 46				INC	SI
06EF C3				RET
06F0 FC			RN1:	CLD
06F1 52				PUSH	DX
06F2 53				PUSH	BX
06F3 56				PUSH	SI
06F4 4B				DEC	BX
06F5 33D2			XOR	DX,DX
06F7 8A00			MOV	AL,[BX+SI]
06F9 B104			MOV	CL,4
06FB 3C30			CMP	AL,48
06FD 7214			JC	RN0
06FF 3C3A			CMP	AL,58
0701 7232			JC	RN5
0703 3C48			CMP	AL,72
0705 7414			JZ	RN6
0707 3C4F			CMP	AL,79
0709 740F			JZ	RN8
070B 3C51			CMP	AL,81
070D 740A			JZ	RN4
070F 3C42			CMP	AL,66
0711 7405			JZ	RN2
0713 5E			RN0:	POP	SI
0714 5B				POP	BX
0715 5A				POP	DX
0716 F9			RN9:	STC
0717 C3				RET
0718 49			RN2:	DEC	CX
0719 49			RN4:	DEC	CX
071A 49			RN8:	DEC	CX
071B D3E2		RN6:	SHL	DX,CL
071D AC				LODSB
071E 2C30			SUB	AL,48
0720 72F1			JC	RN0
0722 3C0A			CMP	AL,10
0724 7202			JC	RN7
0726 2C07			SUB	AL,7
0728 0AD0		RN7:	OR	DL,AL
072A 4B				DEC	BX
072B 75EE			JNZ	RN6
072D 8BC2		RN3:	MOV	AX,DX
072F 5E				POP	SI
0730 5B				POP	BX
0731 03F3			ADD	SI,BX
0733 5A				POP	DX
0734 C3				RET
0735 AC			RN5:	LODSB
0736 2C30			SUB	AL,48
0738 72D9			JC	RN0
073A 3C0A			CMP	AL,10
073C 73D5			JNC	RN0
073E D1E2			SHL	DX,1
0740 8BCA			MOV	CX,DX
0742 D1E2			SHL	DX,1
0744 D1E2			SHL	DX,1
0746 03D1			ADD	DX,CX
0748 03D0			ADD	DX,AX
074A 4B				DEC	BX
074B 79E8			JNS	RN5
074D EBDE			JMP	SHORT RN3
074F 32ED		SL:	XOR	CH,CH
0751 8B05			MOV	AX,[DI]
0753 47			SL1:	INC	DI
0754 47				INC	DI
0755 85C0			TEST	AX,AX
0757 7502			JNZ	SL2
0759 F9				STC
075A C3				RET
075B 8A0D		SL2:	MOV	CL,[DI]
075D 47				INC	DI
075E 3ACB			CMP	CL,BL
0760 750D			JNZ	SL3
0762 56				PUSH	SI
0763 FC				CLD
0764 F3A6			REPZ	CMPSB
0766 5E				POP	SI
0767 7506			JNZ	SL3
0769 03F3			ADD	SI,BX
076B 8B05			MOV	AX,[DI]
076D F8				CLC
076E C3				RET
076F 03F9		SL3:	ADD	DI,CX
0771 48				DEC	AX
0772 EBDF			JMP	SHORT SL1
0774 B90A00		WDA:	MOV	CX,10
0777 FC			WN:	CLD
0778 3BC1			CMP	AX,CX
077A 7309			JNC	WN1
077C 3D0A00			CMP	AX,10
077F 7304			JNC	WN1
0781 0C30			OR	AL,30H
0783 AA				STOSB
0784 C3				RET
0785 8BF7		WN1:	MOV	SI,DI
0787 33D2		WN2:	XOR	DX,DX
0789 F7F1			DIV	CX
078B 92				XCHG	AX,DX
078C 3C0A			CMP	AL,10
078E 1C69			SBB	AL,105
0790 2F				DAS
0791 AA				STOSB
0792 92				XCHG	AX,DX
0793 85C0			TEST	AX,AX
0795 75F0			JNZ	WN2
0797 80FA3A			CMP	DL,58
079A 7203			JC	WN5
079C B030			MOV	AL,48
079E AA				STOSB
079F 8BCF		WN5:	MOV	CX,DI
07A1 2BCE			SUB	CX,SI
07A3 D1E9			SHR	CX,1
07A5 740C			JZ	WN0
07A7 2BF9			SUB	DI,CX
07A9 03F1			ADD	SI,CX
07AB 4E			WN4:	DEC	SI
07AC 8A05			MOV	AL,[DI]
07AE 8604			XCHG	[SI],AL
07B0 AA				STOSB
07B1 E2F8			LOOP	WN4
07B3 C3			WN0:	RET
07B4 85C0		AA:	TEST	AX,AX
07B6 7904			JNS	AANS
07B8 3D80FF			CMP	AX,0FF80H
07BB C3				RET
07BC 3D8000		AANS:	CMP	AX,80H
07BF F5				CMC
07C0 C3				RET
07C1 E8B9FE		SW:	CALL	CC
07C4 7417			JZ	SW0
07C6 BF5918		SW1:	MOV	DI,OFFSET I8086
07C9 56				PUSH	SI
07CA E882FF			CALL	SL
07CD 5E				POP	SI
07CE 720A			JC	SW2
07D0 80FC15			CMP	AH,15H
07D3 7505			JNZ	SW2
07D5 03F3			ADD	SI,BX
07D7 85C0			TEST	AX,AX
07D9 C3				RET
07DA 33C0		SW2:	XOR	AX,AX
07DC C3				RET
07DD F9			SW0:	STC
07DE C3				RET
07DF F606162901		SIZAL:	TEST	BYTE PTR [FUNC],1
07E4 7515			JNZ	SIZAL0
07E6 F6061D29FF			TEST	BYTE PTR [WADJ],0FFH
07EB 750E			JNZ	SIZAL0
07ED 84E4			TEST	AH,AH
07EF 740A			JZ	SIZAL0
07F1 E8C0FF			CALL	AA
07F4 7305			JNC	SIZAL0
07F6 B007			MOV	AL,7
07F8 E96803			JMP	FAIL
07FB C3			SIZAL0:	RET
07FC E87EFE		RA:	CALL	CC
07FF E89101			CALL	SCREG
0802 731F			JNC	RAR
0804 E82801			CALL	BORW
0807 733C			JNC	RAD
0809 E8F200			CALL	RE
080C 80E603			AND	DH,3
080F 750B			JNZ	RAIW	
0811 B102			MOV	CL,2
0813 84E4			TEST	AH,AH
0815 7407			JZ	RAIB
0817 E89AFF			CALL	AA
081A 7302			JNC	RAIB
081C B103		RAIW:	MOV	CL,3
081E 32C0		RAIB:	XOR	AL,AL
0820 E9BE00			JMP	WARG0
0823 BA0505		RAR:	MOV	DX,505H
0826 3C20			CMP	AL,20H
0828 7314			JNC	RARS
082A E83E01			CALL	GSPR
082D 7316			JNC	RAD
082F BA0302			MOV	DX,203H
0832 3C10			CMP	AL,10H
0834 7308			JNC	RARS
0836 B201			MOV	DL,1
0838 3C08			CMP	AL,8
083A 7302			JNC	RARS
083C B601			MOV	DH,1
083E 2407		RARS:	AND	AL,7
0840 86F0			XCHG	DH,AL
0842 E9A000			JMP	WARG
0845 33C9		RAD:	XOR	CX,CX
0847 BA0280			MOV	DX,8002H
084A 80F680		RADM:	XOR	DH,80H
084D 80E6BF		RADP:	AND	DH,0BFH
0850 46				INC	SI
0851 E829FE		RADL:	CALL	CC
0854 743C			JZ	RAD8
0856 3C5D			CMP	AL,5DH
0858 7458			JZ	RADX
085A 3C2B			CMP	AL,2BH
085C 74EF			JZ	RADP
085E 3C2D			CMP	AL,2DH
0860 74E8			JZ	RADM
0862 51				PUSH	CX
0863 E82D01			CALL	SCREG
0866 59				POP	CX
0867 730D			JNC	RADR
0869 51				PUSH	CX
086A E87501			CALL	GV
086D 59				POP	CX
086E 723D			JC	RA1
0870 01062629			ADD	[DISP],AX
0874 EBDB			JMP	SHORT RADL
0876 B101		RADR:	MOV	CL,1
0878 3C0B			CMP	AL,11
087A 7421			JZ	BXD
087C 3C0D			CMP	AL,13
087E 741B			JZ	BPD
0880 3C0E			CMP	AL,14
0882 7413			JZ	SID
0884 3C0F			CMP	AL,15
0886 7411			JZ	DID
0888 E8E000			CALL	GSPR
088B 73C4			JNC	RADL
088D B002		RAD2:	MOV	AL,2
088F E9D102			JMP	FAIL
0892 B008		RAD8:	MOV	AL,8
0894 E9CC02			JMP	FAIL
0897 D0E1		SID:	SHL	CL,1
0899 D0E1		DID:	SHL	CL,1
089B D0E1		BPD:	SHL	CL,1
089D 84E9		BXD:	TEST	CH,CL
089F 75EC			JNZ	RAD2
08A1 F6C680			TEST	DH,80H
08A4 75E7			JNZ	RAD2
08A6 0AE9			OR	CH,CL
08A8 80CE40			OR	DH,40H
08AB EBA4			JMP	SHORT RADL
08AD B001		RA1:	MOV	AL,1
08AF E9B102			JMP	FAIL
08B2 84F6		RADX:	TEST	DH,DH
08B4 74DC			JZ	RAD8
08B6 46				INC	SI
08B7 8AC5			MOV	AL,CH
08B9 BB5026			MOV	BX,OFFSET RM
08BC D7				XLATB
08BD A8F0			TEST	AL,0F0H
08BF 75CC			JNZ	RAD2
08C1 86C6			XCHG	AL,DH
08C3 A803			TEST	AL,3
08C5 7515			JNZ	RADW
08C7 80FE0E			CMP	DH,0EH
08CA 7410			JZ	RADW
08CC 32C9			XOR	CL,CL
08CE A12629			MOV	AX,[DISP]
08D1 85C0			TEST	AX,AX
08D3 7409			JZ	RADB
08D5 B108			MOV	CL,8
08D7 E8DAFE			CALL	AA
08DA 7302			JNC	RADB
08DC B10C		RADW:	MOV	CL,0CH
08DE A01D29		RADB:	MOV	AL,[WADJ]
08E1 080E1C29		WARG0:	OR	[FLAGS],CL
08E5 B104		WARG:	MOV	CL,4
08E7 F6061F290F			TEST	BYTE PTR [ARGS],0FH
08EC 7404			JZ	NARGS
08EE D2C0			ROL	AL,CL
08F0 D3C2			ROL	DX,CL
08F2 08062129		NARGS:	OR	[ARGS+2],AL
08F6 09161F29			OR	[ARGS],DX
08FA A11F29			MOV	AX,[ARGS]
08FD C3				RET
08FE BA0480		RE:	MOV	DX,8004H
0901 4E				DEC	SI
0902 80F680		RESM:	XOR	DH,80H
0905 80E6BF		RESP:	AND	DH,0BFH
0908 46				INC	SI
0909 E871FD		REL:	CALL	CC
090C 7413			JZ	REE
090E 3C2B			CMP	AL,2BH
0910 74F3			JZ	RESP
0912 3C2D			CMP	AL,2DH
0914 74EC			JZ	RESM
0916 E8C900			CALL	GV
0919 7206			JC	REE
091B 01062829			ADD	[IMM],AX
091F EBE8			JMP	SHORT REL
0921 F6C640		REE:	TEST	DH,40H
0924 7404			JZ	RE8
0926 A12829			MOV	AX,[IMM]
0929 C3				RET
092A B008		RE8:	MOV	AL,8
092C E93402			JMP	FAIL
092F 3C5B		BORW:	CMP	AL,5BH
0931 742B			JZ	BRACP
0933 E88BFE			CALL	SW
0936 7427			JZ	BORW0
0938 3C08		SPTR:	CMP	AL,8
093A 7323			JNC	BORW0
093C A21D29			MOV	[WADJ],AL
093F E87FFE			CALL	SW
0942 7222			JC	BORW8
0944 3C11			CMP	AL,11H
0946 750F			JNZ	SPTRR
0948 E832FD			CALL	CC
094B 7419			JZ	BORW8
094D E84300			CALL	SCREG
0950 7205			JC	SPTRR
0952 E81600			CALL	GSPR
0955 720A			JC	BORW1
0957 E823FD		SPTRR:	CALL	CC
095A 3C5B			CMP	AL,5BH
095C 7503			JNZ	BORW1
095E C3			BRACP:	RET
095F F9			BORW0:	STC
0960 C3				RET
0961 B001		BORW1:	MOV	AL,1
0963 E9FD01			JMP	FAIL
0966 B008		BORW8:	MOV	AL,8
0968 E9F801			JMP	FAIL
096B 3C10		GSPR:	CMP	AL,16
096D 7222			JC	GSPR0
096F 3C20			CMP	AL,32
0971 731E			JNC	GSPR0
0973 50				PUSH	AX
0974 E806FD			CALL	CC
0977 3C3A			CMP	AL,3AH
0979 58				POP	AX
097A 7515			JNZ	GSPR0
097C 2403			AND	AL,3
097E D0E0			SHL	AL,1
0980 D0E0			SHL	AL,1
0982 D0E0			SHL	AL,1
0984 0C26			OR	AL,26H
0986 A22329			MOV	[SEGPREF],AL
0989 800E1C2940			OR	BYTE PTR [FLAGS],40H
098E 46				INC	SI
098F F8				CLC
0990 C3				RET
0991 F9			GSPR0:	STC
0992 C3				RET
0993 FC			SCREG:	CLD
0994 AD				LODSW
0995 83FB02			CMP	BX,2
0998 7512			JNZ	SCREG0
099A BF8E27			MOV	DI,OFFSET REGS
099D B91500			MOV	CX,15H
09A0 F2AF			REPNZ	SCASW
09A2 7508			JNZ	SCREG0
09A4 E30A			JCXZ	SCREG1
09A6 B014			MOV	AL,14H
09A8 2AC1			SUB	AL,CL
09AA F8				CLC
09AB C3				RET
09AC 4E			SCREG0:	DEC	SI
09AD 4E				DEC	SI
09AE F9				STC
09AF C3				RET
09B0 E8CAFC		SCREG1:	CALL	CC
09B3 7424			JZ	SCREG2
09B5 3C28			CMP	AL,28H
09B7 7520			JNZ	SCREG2
09B9 46				INC	SI
09BA E8C0FC			CALL	CC
09BD 741E			JZ	SCREG3
09BF E81BFD			CALL	RN
09C2 7219			JC	SCREG3
09C4 3D0700			CMP	AX,7
09C7 7714			JA	SCREG3
09C9 0C20			OR	AL,20H
09CB 50				PUSH	AX
09CC E8AEFC			CALL	CC
09CF 740C			JZ	SCREG3
09D1 3C29			CMP	AL,29H
09D3 7508			JNZ	SCREG3
09D5 58				POP	AX
09D6 46				INC	SI
09D7 F8				CLC
09D8 C3				RET
09D9 B020		SCREG2:	MOV	AL,20H
09DB F8				CLC
09DC C3				RET
09DD 32C0		SCREG3:	XOR	AL,AL
09DF E98101			JMP	FAIL
09E2 F6C640		GV:	TEST	DH,40H
09E5 7525			JNZ	GVA
09E7 E893FC			CALL	CC
09EA 7420			JZ	GVA
09EC 3C24			CMP	AL,24H
09EE 741E			JZ	GVC
09F0 3C22			CMP	AL,22H
09F2 7428			JZ	GVQ
09F4 3C27			CMP	AL,27H
09F6 7424			JZ	GVQ
09F8 E8E2FC			CALL	RN
09FB 7244			JC	GVL
09FD F6C680		GVV:	TEST	DH,80H
0A00 7402			JZ	GVX
0A02 F7D8			NEG	AX
0A04 80E67F		GVX:	AND	DH,7FH
0A07 80CE40			OR	DH,40H
0A0A F8				CLC
0A0B C3				RET
0A0C F9			GVA:	STC
0A0D C3				RET
0A0E 80CE02		GVC:	OR	DH,2
0A11 A10C29			MOV	AX,[PC]
0A14 03061429			ADD	AX,[VORG]
0A18 03F3			ADD	SI,BX
0A1A EBE1			JMP	SHORT GVV
0A1C FF7401		GVQ:	PUSH	WORD PTR [SI+1]
0A1F 03F3			ADD	SI,BX
0A21 8AC3			MOV	AL,BL
0A23 3C03			CMP	AL,3
0A25 7210			JC	GV8
0A27 3C04			CMP	AL,4
0A29 7707			JA	GV7
0A2B 58				POP	AX
0A2C 73CF			JNC	GVV
0A2E 32E4			XOR	AH,AH
0A30 EBCB			JMP	SHORT GVV
0A32 B007		GV7:	MOV	AL,7
0A34 E92C01			JMP	FAIL
0A37 B008		GV8:	MOV	AL,8
0A39 E92701			JMP	FAIL
0A3C B00C		G15H:	MOV	AL,0CH
0A3E E92201			JMP	FAIL
0A41 E84FFF		GVL:	CALL	SCREG
0A44 73F6			JNC	G15H
0A46 80CE01			OR	DH,1
0A49 E87AFD			CALL	SW1
0A4C 7409			JZ	GVL1
0A4E 3C10			CMP	AL,10H
0A50 75EA			JNZ	G15H
0A52 E828FC			CALL	CC
0A55 74E0			JZ	GV8
0A57 BF2E2D		GVL1:	MOV	DI,OFFSET SYMBS
0A5A E8F2FC			CALL	SL
0A5D 739E			JNC	GVV
0A5F F606162902			TEST	BYTE PTR [FUNC],2
0A64 74A8			JZ	GVC
0A66 B004			MOV	AL,4
0A68 E9F800			JMP	FAIL
0A6B 50			WA:	PUSH	AX
0A6C A02129			MOV	AL,[ARGS+2]
0A6F 8AE0			MOV	AH,AL
0A71 B104			MOV	CL,4
0A73 D2EC			SHR	AH,CL
0A75 250F0F			AND	AX,0F0FH
0A78 741C			JZ	WAZ
0A7A 84C0			TEST	AL,AL
0A7C 740D			JZ	WALZ
0A7E 84E4			TEST	AH,AH
0A80 740F			JZ	WAHZ
0A82 3AC4			CMP	AL,AH
0A84 740B			JZ	WAHZ
0A86 B006		WA0:	MOV	AL,6
0A88 E9D800			JMP	FAIL
0A8B 3AC4		WALZ:	CMP	AL,AH
0A8D 7407			JZ	WAZ
0A8F 8AC4			MOV	AL,AH
0A91 3C02		WAHZ:	CMP	AL,2
0A93 77F1			JA	WA0
0A95 48				DEC	AX
0A96 A21D29		WAZ:	MOV	[WADJ],AL
0A99 F6061C2902			TEST	BYTE PTR [FLAGS],2
0A9E 7415			JZ	WAE
0AA0 84C0		WAX:	TEST	AL,AL
0AA2 7406			JZ	WAB
0AA4 08061C29			OR	[FLAGS],AL
0AA8 58				POP	AX
0AA9 C3				RET
0AAA A12829		WAB:	MOV	AX,[IMM]
0AAD E82FFD			CALL	SIZAL
0AB0 80261C29FE			AND	BYTE PTR [FLAGS],0FEH
0AB5 58			WAE:	POP	AX
0AB6 C3				RET
0AB7 800E1C2910		MMODRM:	OR	BYTE PTR [FLAGS],10H
0ABC A11F29			MOV	AX,[ARGS]
0ABF B104			MOV	CL,4
0AC1 3C11			CMP	AL,11H
0AC3 7479			JZ	MREGL
0AC5 3C12			CMP	AL,12H
0AC7 743A			JZ	MMEMR
0AC9 3C13			CMP	AL,13H
0ACB 7471			JZ	MREGL
0ACD 3C21			CMP	AL,21H
0ACF 7430			JZ	MMEML
0AD1 3C23			CMP	AL,23H
0AD3 742C			JZ	MMEML
0AD5 3C31			CMP	AL,31H
0AD7 7467			JZ	MREGR
0AD9 3C32			CMP	AL,32H
0ADB 7426			JZ	MMEMR
0ADD 3C55			CMP	AL,55H
0ADF 745D			JZ	MREGL
0AE1 250F0F			AND	AX,0F0FH
0AE4 3C01			CMP	AL,1
0AE6 7458			JZ	MREGR
0AE8 3C02			CMP	AL,2
0AEA 7417			JZ	MMEMR
0AEC 3C05			CMP	AL,5
0AEE 7450			JZ	MREGR
0AF0 A11F29			MOV	AX,[ARGS]
0AF3 D3C8			ROR	AX,CL
0AF5 250F0F			AND	AX,0F0FH
0AF8 3C01			CMP	AL,1
0AFA 7444			JZ	MREGR
0AFC 3C02			CMP	AL,2
0AFE 7403			JZ	MMEMR
0B00 C3				RET
0B01 D2CC		MMEML:	ROR	AH,CL
0B03 8AC4		MMEMR:	MOV	AL,AH
0B05 50				PUSH	AX
0B06 250770			AND	AX,7007H
0B09 D0CC			ROR	AH,1
0B0B 0AC4			OR	AL,AH
0B0D 08062529			OR	[MODRM],AL
0B11 58				POP	AX
0B12 A808			TEST	AL,8
0B14 7527			JNZ	MME
0B16 F6061C2908			TEST	BYTE PTR [FLAGS],8
0B1B 7410			JZ	MM0
0B1D B040			MOV	AL,40H
0B1F F6061C2904			TEST	BYTE PTR [FLAGS],4
0B24 7402			JZ	MM8
0B26 D0E0			SHL	AL,1
0B28 08062529		MM8:	OR	[MODRM],AL
0B2C C3				RET
0B2D 2407		MM0:	AND	AL,7
0B2F 3C06			CMP	AL,6
0B31 750A			JNZ	MME
0B33 800E1C2908			OR	BYTE PTR [FLAGS],8
0B38 800E252940			OR	BYTE PTR [MODRM],40H
0B3D C3			MME:	RET
0B3E D2CC		MREGL:	ROR	AH,CL
0B40 8AC4		MREGR:	MOV	AL,AH
0B42 D0CC			ROR	AH,1
0B44 250738			AND	AX,3807H
0B47 0AC4			OR	AL,AH
0B49 0CC0			OR	AL,0C0H
0B4B 08062529			OR	[MODRM],AL
0B4F C3				RET
0B50 A02429		EXTEND:	MOV	AL,[OPCODE]
0B53 8AE0			MOV	AH,AL
0B55 250738			AND	AX,3807H
0B58 0CD8			OR	AL,0D8H
0B5A A32429			MOV	[OPCODE],AX
0B5D 800E1C2910			OR	BYTE PTR [FLAGS],10H
0B62 C3				RET
0B63 8B261829		FAIL:	MOV	SP,[STK]
0B67 FC				CLD
0B68 FF061229			INC	WORD PTR [ERRS]
0B6C BFAE2B			MOV	DI,OFFSET TEMP
0B6F 32E4			XOR	AH,AH
0B71 50				PUSH	AX
0B72 D1E0			SHL	AX,1
0B74 057826			ADD	AX,OFFSET ERRM
0B77 8BF0			MOV	SI,AX
0B79 8B34			MOV	SI,[SI]
0B7B F606162904			TEST	BYTE PTR [FUNC],4
0B80 7420			JZ	FAIL0
0B82 E87CF8			CALL	CALF
0B85 721B			JC	FAIL0
0B87 52				PUSH	DX
0B88 56				PUSH	SI
0B89 8BF0			MOV	SI,AX
0B8B 83C604			ADD	SI,4
0B8E E83C00			CALL	WRM
0B91 BE2C20			MOV	SI,202CH
0B94 96				XCHG	AX,SI
0B95 46				INC	SI
0B96 46				INC	SI
0B97 AB				STOSW
0B98 AD				LODSW
0B99 E8D8FB			CALL	WDA
0B9C B83A20			MOV	AX,203AH
0B9F AB				STOSW
0BA0 5E				POP	SI
0BA1 5A				POP	DX
0BA2 E82800		FAIL0:	CALL	WRM
0BA5 58				POP	AX
0BA6 BE4E29			MOV	SI,OFFSET INCFILE
0BA9 3C05			CMP	AL,5
0BAB 7406			JZ	FAIL5
0BAD 3C0B			CMP	AL,0BH
0BAF 7417			JZ	FAILW
0BB1 F9				STC
0BB2 C3				RET	
0BB3 A12829		FAIL5:	MOV	AX,[IMM]
0BB6 85C0			TEST	AX,AX
0BB8 7903			JNS	FAILNS
0BBA F7D8			NEG	AX
0BBC 48				DEC	AX
0BBD 2D7F00		FAILNS:	SUB	AX,7FH
0BC0 50				PUSH	AX
0BC1 E8B0FB			CALL	WDA
0BC4 58				POP	AX
0BC5 BEA028			MOV	SI,OFFSET BYTEM
0BC8 E80200		FAILW:	CALL	WRM
0BCB F9				STC
0BCC C3				RET
0BCD 8A0C		WRM:	MOV	CL,[SI]
0BCF 32ED			XOR	CH,CH
0BD1 46				INC	SI
0BD2 FC				CLD
0BD3 F3A4			REPZ	MOVSB
0BD5 C3				RET
0BD6 E823FC		G1:	CALL	RA
0BD9 E820FC			CALL	RA
0BDC E88CFE			CALL	WA
0BDF 3C11			CMP	AL,11H
0BE1 7442			JZ	G1RM
0BE3 3C12			CMP	AL,12H
0BE5 7443			JZ	G1MR
0BE7 3C21			CMP	AL,21H
0BE9 743A			JZ	G1RM
0BEB 3C41			CMP	AL,41H
0BED 7409			JZ	G1RI
0BEF 3C42			CMP	AL,42H
0BF1 7414			JZ	G1MI
0BF3 32C0			XOR	AL,AL
0BF5 E96BFF			JMP	FAIL
0BF8 80E407		G1RI:	AND	AH,7
0BFB 750A			JNZ	G1MI
0BFD A01D29			MOV	AL,[WADJ]
0C00 0C04			OR	AL,4
0C02 08062429			OR	[OPCODE],AL
0C06 C3				RET
0C07 B080		G1MI:	MOV	AL,80H
0C09 86062429			XCHG	AL,[OPCODE]
0C0D 08062529			OR	[MODRM],AL
0C11 A12829			MOV	AX,[IMM]
0C14 E89DFB			CALL	AA
0C17 7211			JC	G1MR
0C19 80261C29FE			AND	BYTE PTR [FLAGS],0FEH
0C1E F6061D29FF			TEST	BYTE PTR [WADJ],0FFH
0C23 7405			JZ	G1MR
0C25 800E242902		G1RM:	OR	BYTE PTR [OPCODE],2
0C2A A01D29		G1MR:	MOV	AL,[WADJ]
0C2D 08062429			OR	[OPCODE],AL
0C31 E983FE			JMP	MMODRM
0C34 E8C5FB		G2:	CALL	RA
0C37 E831FE			CALL	WA
0C3A A02429			MOV	AL,[OPCODE]
0C3D A22529			MOV	[MODRM],AL
0C40 A01D29			MOV	AL,[WADJ]
0C43 0CD0			OR	AL,0D0H
0C45 A22429			MOV	[OPCODE],AL
0C48 E832FA			CALL	CC
0C4B 7420			JZ	G2N
0C4D 83FB02			CMP	BX,2
0C50 740D			JZ	G2R
0C52 E8A9FC		G2V:	CALL	RE
0C55 3D0100			CMP	AX,1
0C58 7413			JZ	G2N
0C5A 32C0			XOR	AL,AL
0C5C E904FF			JMP	FAIL
0C5F A19027		G2R:	MOV	AX,[REGS+2]
0C62 3B04			CMP	AX,[SI]
0C64 75EC			JNZ	G2V
0C66 800E242902			OR	BYTE PTR [OPCODE],2
0C6B 03F3			ADD	SI,BX
0C6D E947FE		G2N:	JMP	MMODRM
0C70 E889FB		G3:	CALL	RA
0C73 800E242900			OR	BYTE PTR [OPCODE],0
0C78 7503			JNZ	G3S
0C7A E87FFB			CALL	RA
0C7D E8EBFD		G3S:	CALL	WA
0C80 3C01			CMP	AL,1
0C82 7426			JZ	G3R
0C84 3C02			CMP	AL,2
0C86 7422			JZ	G3R
0C88 3C11			CMP	AL,11H
0C8A 7415			JZ	G3RM
0C8C 3C12			CMP	AL,12H
0C8E 7411			JZ	G3RM
0C90 3C21			CMP	AL,21H
0C92 740D			JZ	G3RM
0C94 3C41			CMP	AL,41H
0C96 740D			JZ	G3RA
0C98 3C42			CMP	AL,42H
0C9A 740E			JZ	G3R
0C9C 32C0			XOR	AL,AL
0C9E E9C2FE			JMP	FAIL
0CA1 B484		G3RM:	MOV	AH,84H
0CA3 EB07			JMP	SHORT G3E
0CA5 F6C407		G3RA:	TEST	AH,7
0CA8 7412			JZ	G3A
0CAA B4F6		G3R:	MOV	AH,0F6H
0CAC A01D29		G3E:	MOV	AL,[WADJ]
0CAF 0AC4			OR	AL,AH
0CB1 86062429			XCHG	AL,[OPCODE]
0CB5 08062529			OR	[MODRM],AL
0CB9 E9FBFD			JMP	MMODRM
0CBC A01D29		G3A:	MOV	AL,[WADJ]
0CBF 0CA8			OR	AL,0A8H
0CC1 A22429			MOV	[OPCODE],AL
0CC4 C3				RET
0CC5 E834FB		G4:	CALL	RA
0CC8 E8A0FD			CALL	WA
0CCB 3C01			CMP	AL,1
0CCD 740D			JZ	G4R
0CCF 3C02			CMP	AL,2
0CD1 741D			JZ	G4M
0CD3 3C03			CMP	AL,3
0CD5 743A			JZ	G4S
0CD7 32C0			XOR	AL,AL
0CD9 E987FE			JMP	FAIL
0CDC A02129		G4R:	MOV	AL,[ARGS+2]
0CDF 3C02			CMP	AL,2
0CE1 720D			JC	G4M
0CE3 A02429			MOV	AL,[OPCODE]
0CE6 2418			AND	AL,18H
0CE8 0C40			OR	AL,40H
0CEA 0AC4			OR	AL,AH
0CEC A22429			MOV	[OPCODE],AL
0CEF C3				RET
0CF0 A02429		G4M:	MOV	AL,[OPCODE]
0CF3 3C38			CMP	AL,38H
0CF5 B88F00			MOV	AX,8FH
0CF8 7411			JZ	G4P
0CFA A02129			MOV	AL,[ARGS+2]
0CFD 84C0			TEST	AL,AL
0CFF A01D29			MOV	AL,[WADJ]
0D02 7501			JNZ	G4W
0D04 40				INC	AX
0D05 0CFE		G4W:	OR	AL,0FEH
0D07 8A262429			MOV	AH,[OPCODE]
0D0B A32429		G4P:	MOV	[OPCODE],AX
0D0E E9A6FD			JMP	MMODRM
0D11 49			G4S:	DEC	CX
0D12 D2E4			SHL	AH,CL
0D14 A02429			MOV	AL,[OPCODE]
0D17 D2E8			SHR	AL,CL
0D19 2401			AND	AL,1
0D1B 0AC4			OR	AL,AH
0D1D 0C06			OR	AL,6
0D1F A22429			MOV	[OPCODE],AL
0D22 C3				RET
0D23 E8D8FB		G5:	CALL	RE
0D26 800E1C2902			OR	BYTE PTR [FLAGS],2
0D2B F606162902			TEST	BYTE PTR [FUNC],2
0D30 7417			JZ	G5X
0D32 2B060C29			SUB	AX,[PC]
0D36 2B061429			SUB	AX,[VORG]
0D3A 48				DEC	AX
0D3B 48				DEC	AX
0D3C A32829			MOV	[IMM],AX
0D3F E872FA			CALL	AA
0D42 7305			JNC	G5X
0D44 B005			MOV	AL,5
0D46 E91AFE			JMP	FAIL
0D49 C3			G5X:	RET
0D4A E874FA		G6:	CALL	SW
0D4D 725B			JC	G6F8
0D4F 745E			JZ	G6U
0D51 50				PUSH	AX
0D52 E86CFA			CALL	SW
0D55 7253			JC	G6F8
0D57 7404			JZ	G6P
0D59 3C11			CMP	AL,11H
0D5B 7543			JNZ	G6F0
0D5D 58			G6P:	POP	AX
0D5E 3C02			CMP	AL,2
0D60 7415			JZ	G6N
0D62 3C03			CMP	AL,3
0D64 740C			JZ	G6F
0D66 3C08			CMP	AL,8
0D68 7429			JZ	G6S
0D6A 3C09			CMP	AL,9
0D6C 7409			JZ	G6N
0D6E 3C0A			CMP	AL,0AH
0D70 752E			JNZ	G6F0
0D72 800E252908		G6F:	OR	BYTE PTR [MODRM],8
0D77 E882FA		G6N:	CALL	RA
0D7A 3C01			CMP	AL,1
0D7C 7404			JZ	G6R
0D7E 3C02			CMP	AL,2
0D80 751E			JNZ	G6F0
0D82 B1FF		G6R:	MOV	CL,0FFH
0D84 860E2429			XCHG	CL,[OPCODE]
0D88 B010			MOV	AL,10H
0D8A D2E0			SHL	AL,CL
0D8C 08062529			OR	[MODRM],AL
0D90 E924FD			JMP	MMODRM
0D93 B0EB		G6S:	MOV	AL,0EBH
0D95 86062429			XCHG	AL,[OPCODE]
0D99 84C0			TEST	AL,AL
0D9B 7408			JZ	G6F1
0D9D E983FF			JMP	G5
0DA0 32C0		G6F0:	XOR	AL,AL
0DA2 E9BEFD			JMP	FAIL
0DA5 B001		G6F1:	MOV	AL,1
0DA7 E9B9FD			JMP	FAIL
0DAA B008		G6F8:	MOV	AL,8
0DAC E9B4FD			JMP	FAIL
0DAF E84AFA		G6U:	CALL	RA
0DB2 3C01			CMP	AL,1
0DB4 74CC			JZ	G6R
0DB6 3C02			CMP	AL,2
0DB8 74C8			JZ	G6R
0DBA 3C04			CMP	AL,4
0DBC 75E2			JNZ	G6F0
0DBE E8BCF8			CALL	CC
0DC1 751C			JNZ	G6IF
0DC3 A12829			MOV	AX,[IMM]
0DC6 2B060C29			SUB	AX,[PC]
0DCA 2B061429			SUB	AX,[VORG]
0DCE 2D0300			SUB	AX,3
0DD1 A32829			MOV	[IMM],AX
0DD4 800E1C2903			OR	BYTE PTR [FLAGS],3
0DD9 800E2429E8			OR	BYTE PTR [OPCODE],0E8H
0DDE C3				RET
0DDF 3C3A		G6IF:	CMP	AL,3AH
0DE1 75C2			JNZ	G6F1
0DE3 46				INC	SI
0DE4 33C0			XOR	AX,AX
0DE6 87062829			XCHG	AX,[IMM]
0DEA 50				PUSH	AX
0DEB E810FB			CALL	RE
0DEE A32629			MOV	[DISP],AX
0DF1 8F062829			POP	WORD PTR [IMM]
0DF5 800E1C290F			OR	BYTE PTR [FLAGS],0FH
0DFA A02429			MOV	AL,[OPCODE]
0DFD 84C0			TEST	AL,AL
0DFF 7406			JZ	G6I
0E01 C6062429EA			MOV	BYTE PTR [OPCODE],0EAH
0E06 C3				RET
0E07 C60624299A		G6I:	MOV	BYTE PTR [OPCODE],9AH
0E0C C3				RET
0E0D E86DF8		G7:	CALL	CC
0E10 750C			JNZ	G7A
0E12 B80A00			MOV	AX,0AH
0E15 A32829			MOV	[IMM],AX
0E18 800E1C2902		G7B:	OR	BYTE PTR [FLAGS],2
0E1D C3				RET
0E1E E8DDFA		G7A:	CALL	RE
0E21 84E4			TEST	AH,AH
0E23 74F3			JZ	G7B
0E25 B007			MOV	AL,7
0E27 E939FD			JMP	FAIL
0E2A E8CFF9		G8:	CALL	RA
0E2D E8CCF9			CALL	RA
0E30 3C21			CMP	AL,21H
0E32 7530			JNZ	G8F
0E34 E980FC			JMP	MMODRM
0E37 E8C2F9		G9:	CALL	RA
0E3A E8BFF9			CALL	RA
0E3D E82BFC			CALL	WA
0E40 3C11			CMP	AL,11H
0E42 743A			JZ	G9RM
0E44 3C12			CMP	AL,12H
0E46 7459			JZ	G9MR
0E48 3C13			CMP	AL,13H
0E4A 746A			JZ	G9SR
0E4C 3C21			CMP	AL,21H
0E4E 742E			JZ	G9RM
0E50 3C23			CMP	AL,23H
0E52 7462			JZ	G9SR
0E54 3C31			CMP	AL,31H
0E56 745A			JZ	G9RS
0E58 3C32			CMP	AL,32H
0E5A 7456			JZ	G9RS
0E5C 3C41			CMP	AL,41H
0E5E 7409			JZ	G9RI
0E60 3C42			CMP	AL,42H
0E62 7413			JZ	G9MI
0E64 32C0		G8F:	XOR	AL,AL
0E66 E9FAFC			JMP	FAIL
0E69 A01D29		G9RI:	MOV	AL,[WADJ]
0E6C 49				DEC	CX
0E6D D2E0			SHL	AL,CL
0E6F 0AC4			OR	AL,AH
0E71 0CB0			OR	AL,0B0H
0E73 A22429			MOV	[OPCODE],AL
0E76 C3				RET
0E77 A01D29		G9MI:	MOV	AL,[WADJ]
0E7A 0CC6			OR	AL,0C6H
0E7C EB3A			JMP	SHORT G9E
0E7E B002		G9RM:	MOV	AL,2
0E80 80FCE0			CMP	AH,0E0H
0E83 7523			JNZ	G9NA
0E85 3402		G9A:	XOR	AL,2
0E87 0CA0			OR	AL,0A0H
0E89 0A061D29			OR	AL,[WADJ]
0E8D A22429			MOV	[OPCODE],AL
0E90 A01C29			MOV	AL,[FLAGS]
0E93 24E3			AND	AL,0E3H
0E95 0C03			OR	AL,3
0E97 A21C29			MOV	[FLAGS],AL
0E9A A12629			MOV	AX,[DISP]
0E9D A32829			MOV	[IMM],AX
0EA0 C3				RET
0EA1 32C0		G9MR:	XOR	AL,AL
0EA3 80FC0E			CMP	AH,0EH
0EA6 74DD			JZ	G9A
0EA8 0A061D29		G9NA:	OR	AL,[WADJ]
0EAC 0A062429			OR	AL,[OPCODE]
0EB0 EB06			JMP	SHORT G9E
0EB2 B08C		G9RS:	MOV	AL,8CH
0EB4 EB02			JMP	SHORT G9E
0EB6 B08E		G9SR:	MOV	AL,8EH
0EB8 A22429		G9E:	MOV	[OPCODE],AL
0EBB E9F9FB			JMP	MMODRM
0EBE E8BCF7		G0AH:	CALL	CC
0EC1 7406			JZ	G0
0EC3 E85BF7			CALL	OUTW
0EC6 E9C1F6			JMP	ASML
0EC9 C3			G0:	RET
0ECA 800E242908		G0BH2:	OR	BYTE PTR [OPCODE],8
0ECF E8EFF8		G0BH:	CALL	SW
0ED2 7216			JC	G0BH0
0ED4 7408			JZ	G0BH1
0ED6 3C09			CMP	AL,9
0ED8 74F5			JZ	G0BH
0EDA 3C0A			CMP	AL,10
0EDC 74EC			JZ	G0BH2
0EDE E81DFA		G0BH1:	CALL	RE
0EE1 800E1C2903			OR	BYTE PTR [FLAGS],3
0EE6 FE0E2429			DEC	BYTE PTR [OPCODE]
0EEA C3			G0BH0:	RET
0EEB E810FA		G0CH:	CALL	RE
0EEE 3D0300			CMP	AX,3
0EF1 740A			JZ	G0CH3
0EF3 0AE4			OR	AH,AH
0EF5 750B			JNZ	G0CHF
0EF7 800E1C2902			OR	BYTE PTR [FLAGS],2
0EFC C3				RET
0EFD FE0E2429		G0CH3:	DEC	BYTE PTR [OPCODE]
0F01 C3				RET
0F02 B007		G0CHF:	MOV	AL,7
0F04 E95CFC			JMP	FAIL
0F07 56			G0DH:	PUSH	SI
0F08 8BF5			MOV	SI,BP
0F0A E870F7			CALL	CC
0F0D BF2E2D			MOV	DI,OFFSET SYMBS
0F10 E83CF8			CALL	SL
0F13 5E				POP	SI
0F14 57				PUSH	DI
0F15 E8E6F9			CALL	RE
0F18 5F				POP	DI
0F19 AB				STOSW
0F1A 32C0			XOR	AL,AL
0F1C A21C29			MOV	[FLAGS],AL
0F1F C3				RET
0F20 E8D9F8		G0EH:	CALL	RA
0F23 E8D6F8			CALL	RA
0F26 3C14			CMP	AL,14H
0F28 7409			JZ	G0EHRM
0F2A 3C24			CMP	AL,24H
0F2C 7405			JZ	G0EHRM
0F2E 32C0			XOR	AL,AL
0F30 E930FC			JMP	FAIL
0F33 A12829		G0EHRM:	MOV	AX,[IMM]
0F36 3D3F00			CMP	AX,3FH
0F39 7716			JA	G0EHF
0F3B 8AE0			MOV	AH,AL
0F3D 49				DEC	CX
0F3E D2C8			ROR	AL,CL
0F40 250707			AND	AX,707H
0F43 D2C4			ROL	AH,CL
0F45 09062429			OR	[OPCODE],AX
0F49 80261C29FC			AND	BYTE PTR [FLAGS],0FCH
0F4E E966FB			JMP	MMODRM
0F51 B007		G0EHF:	MOV	AL,7
0F53 E90DFC			JMP	FAIL
0F56 32C0		G0FH:	XOR	AL,AL
0F58 A21C29			MOV	[FLAGS],AL
0F5B F606162904			TEST	BYTE PTR [FUNC],4
0F60 7501			JNZ	G0FH1
0F62 C3				RET
0F63 E817F7		G0FH1:	CALL	CC
0F66 7428			JZ	G0FHF8
0F68 3C22			CMP	AL,22H
0F6A 7404			JZ	G0FHQ
0F6C 3C27			CMP	AL,27H
0F6E 750A			JNZ	G0FHG
0F70 46			G0FHQ:	INC	SI
0F71 83EB02			SUB	BX,2
0F74 761A			JNA	G0FHF8
0F76 32C0			XOR	AL,AL
0F78 8800			MOV	[BX+SI],AL
0F7A BF4E29		G0FHG:	MOV	DI,OFFSET INCFILE
0F7D E8CCF2			CALL	GETFN
0F80 56				PUSH	SI
0F81 BE4E29			MOV	SI,OFFSET INCFILE
0F84 E896F4			CALL	INCF
0F87 5E				POP	SI
0F88 7201			JC	G0FHF
0F8A C3				RET
0F8B B00B		G0FHF:	MOV	AL,0BH
0F8D E9D3FB			JMP	FAIL
0F90 B008		G0FHF8:	MOV	AL,8
0F92 E9CEFB			JMP	FAIL
0F95 E864F8		G10H:	CALL	RA
0F98 E861F8			CALL	RA
0F9B E8CDFA			CALL	WA
0F9E 3C11			CMP	AL,11H
0FA0 740D			JZ	G10HR
0FA2 3C12			CMP	AL,12H
0FA4 741A			JZ	G10HM
0FA6 3C21			CMP	AL,21H
0FA8 7416			JZ	G10HM
0FAA 32C0			XOR	AL,AL
0FAC E9B4FB			JMP	FAIL
0FAF A01D29		G10HR:	MOV	AL,[WADJ]
0FB2 A8FF			TEST	AL,0FFH
0FB4 740A			JZ	G10HM
0FB6 8AC4			MOV	AL,AH
0FB8 A80F			TEST	AL,0FH
0FBA 740F			JZ	G10HAR
0FBC A8F0			TEST	AL,0F0H
0FBE 740D			JZ	G10HRA
0FC0 A01D29		G10HM:	MOV	AL,[WADJ]
0FC3 0C86			OR	AL,86H
0FC5 A22429			MOV	[OPCODE],AL
0FC8 E9ECFA			JMP	MMODRM
0FCB D2E8		G10HAR:	SHR	AL,CL
0FCD 0C90		G10HRA:	OR	AL,90H
0FCF A22429			MOV	[OPCODE],AL
0FD2 C3				RET
0FD3 E826F8		G11H:	CALL	RA
0FD6 E823F8			CALL	RA
0FD9 80261C29FE			AND	BYTE PTR [FLAGS],0FEH
0FDE 8A2E2129			MOV	CH,[ARGS+2]
0FE2 3C41			CMP	AL,41H
0FE4 741A			JZ	G11HI
0FE6 3C14			CMP	AL,14H
0FE8 7414			JZ	G11HO
0FEA 800E242908			OR	BYTE PTR [OPCODE],8
0FEF 3D1120			CMP	AX,2011H
0FF2 740C			JZ	G11HI
0FF4 3D1102			CMP	AX,211H
0FF7 7405			JZ	G11HO
0FF9 32C0		G11HF:	XOR	AL,AL
0FFB E965FB			JMP	FAIL
0FFE D2ED		G11HO:	SHR	CH,CL
1000 8AC5		G11HI:	MOV	AL,CH
1002 240F			AND	AL,0FH
1004 3C02			CMP	AL,2
1006 7204			JC	G11H0
1008 FE062429			INC	BYTE PTR [OPCODE]
100C C3			G11H0:	RET
100D F606162904		G12H:	TEST	BYTE PTR [FUNC],4
1012 7407			JZ	G12H0
1014 8B261A29			MOV	SP,[STK+2]
1018 E93AF3			JMP	ASMF0
101B C3			G12H0:	RET
101C E8DFF8		G13H:	CALL	RE
101F A31429			MOV	[VORG],AX
1022 32C0			XOR	AL,AL
1024 A21C29			MOV	[FLAGS],AL
1027 C3				RET
1028 33C0		G14H:	XOR	AX,AX
102A 8BE8			MOV	BP,AX
102C A21C29			MOV	[FLAGS],AL
102F BFAF2C			MOV	DI,OFFSET OUTPUT+1
1032 FC			G14HL:	CLD
1033 E847F6			CALL	CC
1036 7473			JZ	G14H0
1038 3C3F			CMP	AL,3FH
103A 7460			JZ	G14HU
103C E87D00			CALL	G14HS
103F 3C22			CMP	AL,22H
1041 743C			JZ	G14HQ
1043 3C27			CMP	AL,27H
1045 7438			JZ	G14HQ
1047 57				PUSH	DI
1048 E8B3F8			CALL	RE
104B 5F				POP	DI
104C 33C0			XOR	AX,AX
104E 87062829			XCHG	AX,[IMM]
1052 8A0E2429			MOV	CL,[OPCODE]
1056 49				DEC	CX
1057 7503			JNZ	G14HNZ
1059 E883F7			CALL	SIZAL
105C BA0100		G14HNZ:	MOV	DX,1
105F D3E2			SHL	DX,CL
1061 80F904			CMP	CL,4
1064 7503			JNZ	G14HNT
1066 BA0A00			MOV	DX,10
1069 AA			G14HNT:	STOSB
106A 84C9			TEST	CL,CL
106C 7403			JZ	G14HB
106E 8AC4			MOV	AL,AH
1070 AA				STOSB
1071 83EA02		G14HB:	SUB	DX,2
1074 76BC			JNA	G14HL
1076 8BCA			MOV	CX,DX
1078 D0D4			RCL	AH,1
107A D6				SALC
107B F3AA			REPZ	STOSB
107D EBB3			JMP	SHORT G14HL
107F 803E242901		G14HQ:	CMP	BYTE PTR [OPCODE],1
1084 7711			JA	G14HF
1086 8AE0			MOV	AH,AL
1088 8BCB			MOV	CX,BX
108A 83E902			SUB	CX,2
108D 7608			JNA	G14HF
108F 46				INC	SI
1090 F3A4			REPZ	MOVSB
1092 AC				LODSB
1093 3AC4			CMP	AL,AH
1095 749B			JZ	G14HL
1097 B001		G14HF:	MOV	AL,1
1099 E9C7FA			JMP	FAIL
109C 8A0E2429		G14HU:	MOV	CL,[OPCODE]
10A0 B80100			MOV	AX,1
10A3 49				DEC	CX
10A4 D3E0			SHL	AX,CL
10A6 03E8			ADD	BP,AX
10A8 46				INC	SI
10A9 EB87			JMP	SHORT G14HL
10AB 8BC7		G14H0:	MOV	AX,DI
10AD 2DAF2C			SUB	AX,OFFSET OUTPUT+1
10B0 A2AE2C			MOV	[OUTPUT],AL
10B3 012E1029			ADD	[USIZE],BP
10B7 012E0C29			ADD	[PC],BP
10BB C3				RET
10BC 33C9		G14HS:	XOR	CX,CX
10BE 87CD			XCHG	CX,BP
10C0 E306			JCXZ	G14HS0
10C2 50				PUSH	AX
10C3 32C0			XOR	AL,AL
10C5 F3AA			REPZ	STOSB
10C7 58				POP	AX
10C8 C3			G14HS0:	RET
10C9 E8B1F5		G16H:	CALL	CC
10CC 3C3A			CMP	AL,3AH
10CE 7507			JNZ	G16H1
10D0 46				INC	SI
10D1 80261C29DF			AND	BYTE PTR [FLAGS],0DFH
10D6 C3				RET
10D7 E824F8		G16H1:	CALL	RE
10DA 01061029			ADD	[USIZE],AX
10DE 01060C29			ADD	[PC],AX
10E2 32C0			XOR	AL,AL
10E4 A21C29			MOV	[FLAGS],AL
10E7 C3				RET
10E8 A10C29		G17H:	MOV	AX,[PC]
10EB 2401			AND	AL,1
10ED 7503			JNZ	G17H0
10EF A21C29			MOV	[FLAGS],AL
10F2 C3			G17H0:	RET
10F3 E806F7		G18H:	CALL	RA
10F6 32E4			XOR	AH,AH
10F8 A02429			MOV	AL,[OPCODE]
10FB D1E0			SHL	AX,1
10FD D1E0			SHL	AX,1
10FF 057026			ADD	AX,OFFSET FLDTB
1102 8BD8			MOV	BX,AX
1104 A01F29			MOV	AL,[ARGS]
1107 3C05			CMP	AL,5
1109 7418			JZ	G18HR
110B 3C02			CMP	AL,2
110D 750F			JNZ	G18HF
110F A02129			MOV	AL,[ARGS+2]
1112 3C03			CMP	AL,3
1114 7410			JZ	G18HD
1116 3C04			CMP	AL,4
1118 740B			JZ	G18HQ
111A 3C05			CMP	AL,5
111C 7406			JZ	G18HT
111E B001		G18HF:	MOV	AL,1
1120 E940FA			JMP	FAIL
1123 43			G18HR:	INC	BX
1124 43			G18HT:	INC	BX
1125 43			G18HQ:	INC	BX
1126 8A07		G18HD:	MOV	AL,[BX]
1128 A22429			MOV	[OPCODE],AL
112B E822FA			CALL	EXTEND
112E E986F9			JMP	MMODRM
1131 B0D9		G19H:	MOV	AL,0D9H
1133 86062429			XCHG	AL,[OPCODE]
1137 A22529			MOV	[MODRM],AL
113A 800E1C2910			OR	BYTE PTR [FLAGS],10H
113F C3				RET
1140 E83AF5		G1AH:	CALL	CC
1143 7506			JNZ	G1AHR
1145 FE062429			INC	BYTE PTR [OPCODE]
1149 EB14			JMP	SHORT G1AHE
114B E8AEF6		G1AHR:	CALL	RA
114E E8ABF6			CALL	RA
1151 3C55			CMP	AL,55H
1153 7519			JNZ	G1AHF
1155 8AC4			MOV	AL,AH
1157 A8F0			TEST	AL,0F0H
1159 7513			JNZ	G1AHF
115B 08062429			OR	[OPCODE],AL
115F B0DE		G1AHE:	MOV	AL,0DEH
1161 86062429			XCHG	AL,[OPCODE]
1165 A22529			MOV	[MODRM],AL
1168 800E1C2910			OR	BYTE PTR [FLAGS],10H
116D C3				RET
116E B001		G1AHF:	MOV	AL,1
1170 E9F0F9			JMP	FAIL
1173 E8DAF9		G1BH:	CALL	EXTEND
1176 E883F6			CALL	RA
1179 3C02			CMP	AL,2
117B 750B			JNZ	G1BHF
117D A02129			MOV	AL,[ARGS+2]
1180 3C02			CMP	AL,2
1182 7409			JZ	G1BHW
1184 3C03			CMP	AL,3
1186 740A			JZ	G1BHD
1188 B001		G1BHF:	MOV	AL,1
118A E9D6F9			JMP	FAIL
118D 800E242904		G1BHW:	OR	BYTE PTR [OPCODE],4
1192 E922F9		G1BHD:	JMP	MMODRM
1195 E864F6		G1CH:	CALL	RA
1198 E8B5F9			CALL	EXTEND
119B 3C02			CMP	AL,2
119D 7503			JNZ	G1CHF
119F E915F9			JMP	MMODRM
11A2 B001		G1CHF:	MOV	AL,1
11A4 E9BCF9			JMP	FAIL
11A7 C7062429DED9	G1DH:	MOV	WORD PTR [OPCODE],0D9DEH
11AD 800E1C2910			OR	BYTE PTR [FLAGS],10H
11B2 C3				RET
11B3 B0DB		G1EH:	MOV	AL,0DBH
11B5 86062429			XCHG	AL,[OPCODE]
11B9 A810			TEST	AL,10H
11BB 740C			JZ	G1EH0
11BD 3410			XOR	AL,10H
11BF C60622299B			MOV	BYTE PTR [FPREF],9BH
11C4 800E1C2980			OR	BYTE PTR [FLAGS],80H
11C9 0CE0		G1EH0:	OR	AL,0E0H
11CB A22529			MOV	[MODRM],AL
11CE 800E1C2910			OR	BYTE PTR [FLAGS],10H
11D3 C3				RET
11D4 E879F9		G1FH:	CALL	EXTEND
11D7 E822F6			CALL	RA
11DA 3C02			CMP	AL,2
11DC 7409			JZ	G1FHM
11DE 3C05			CMP	AL,5
11E0 7410			JZ	G1FHR
11E2 32C0			XOR	AL,AL
11E4 E97CF9			JMP	FAIL
11E7 A02129		G1FHM:	MOV	AL,[ARGS+2]
11EA 3C03			CMP	AL,3
11EC 7409			JZ	G1FHD
11EE 3C04			CMP	AL,4
11F0 7508			JNZ	G1FHF
11F2 800E242904		G1FHR:	OR	BYTE PTR [OPCODE],4
11F7 E9BDF8		G1FHD:	JMP	MMODRM
11FA B001		G1FHF:	MOV	AL,1
11FC E964F9			JMP	FAIL
11FF E84EF9		G20H:	CALL	EXTEND
1202 E878F4			CALL	CC
1205 7504			JNZ	G20H1
1207 B401			MOV	AH,1
1209 EB07			JMP	SHORT G20H2
120B E8EEF5		G20H1:	CALL	RA
120E 3C05			CMP	AL,5
1210 7508			JNZ	G20HF
1212 80CCC0		G20H2:	OR	AH,0C0H
1215 08262529			OR	[MODRM],AH
1219 C3				RET
121A 32C0		G20HF:	XOR	AL,AL
121C E944F9			JMP	FAIL
121F E8DAF5		G21H:	CALL	RA
1222 E82BF9			CALL	EXTEND
1225 800E1C2980			OR	BYTE PTR [FLAGS],80H
122A C60622299B			MOV	BYTE PTR [FPREF],9BH
122F A01F29			MOV	AL,[ARGS]
1232 3C02			CMP	AL,2
1234 7503			JNZ	G21HF
1236 E97EF8			JMP	MMODRM
1239 B001		G21HF:	MOV	AL,1
123B E925F9			JMP	FAIL
123E E80FF9		G22H:	CALL	EXTEND
1241 E839F4			CALL	CC
1244 7506			JNZ	G22HG
1246 800E2529D1			OR	BYTE PTR [MODRM],0D1H
124B C3				RET
124C E8ADF5		G22HG:	CALL	RA
124F 3C05			CMP	AL,5
1251 7419			JZ	G22HD
1253 3C02			CMP	AL,2
1255 750B			JNZ	G22HF
1257 A02129			MOV	AL,[ARGS+2]
125A 3C03			CMP	AL,3
125C 740E			JZ	G22HD
125E 3C04			CMP	AL,4
1260 7405			JZ	G22HQ
1262 B001		G22HF:	MOV	AL,1
1264 E9FCF8			JMP	FAIL
1267 800E242904		G22HQ:	OR	BYTE PTR [OPCODE],4
126C E948F8		G22HD:	JMP	MMODRM
126F B0D8		G23H:	MOV	AL,0D8H
1271 32E4			XOR	AH,AH
1273 86062429			XCHG	AL,[OPCODE]
1277 D0E0			SHL	AL,1
1279 8BD8			MOV	BX,AX
127B 81C36026			ADD	BX,OFFSET ARITB
127F D0E0			SHL	AL,1
1281 D0E0			SHL	AL,1
1283 A22529			MOV	[MODRM],AL
1286 53				PUSH	BX
1287 E872F5			CALL	RA
128A E8F0F3			CALL	CC
128D 5B				POP	BX
128E 7432			JZ	G23HM
1290 53				PUSH	BX
1291 E868F5			CALL	RA
1294 5B				POP	BX
1295 3C55			CMP	AL,55H
1297 7543			JNZ	G23HF
1299 8AC4			MOV	AL,AH
129B 250FF0			AND	AX,0F00FH
129E D2EC			SHR	AH,CL
12A0 84C0			TEST	AL,AL
12A2 7410			JZ	G23H0
12A4 84E4			TEST	AH,AH
12A6 7534			JNZ	G23HF
12A8 43				INC	BX
12A9 8A27			MOV	AH,[BX]
12AB 80E407			AND	AH,7
12AE 08262429			OR	[OPCODE],AH
12B2 32E4			XOR	AH,AH
12B4 0AC4		G23H0:	OR	AL,AH
12B6 0CC0			OR	AL,0C0H
12B8 08062529			OR	[MODRM],AL
12BC 800E1C2910			OR	BYTE PTR [FLAGS],10H
12C1 C3				RET
12C2 3C02		G23HM:	CMP	AL,2
12C4 7516			JNZ	G23HF
12C6 A02129			MOV	AL,[ARGS+2]
12C9 3C03			CMP	AL,3
12CB 740C			JZ	G23HD
12CD 3C04			CMP	AL,4
12CF 750B			JNZ	G23HF
12D1 8A07		G23HQ:	MOV	AL,[BX]
12D3 2407			AND	AL,7
12D5 08062429			OR	[OPCODE],AL
12D9 E9DBF7		G23HD:	JMP	MMODRM
12DC 32C0		G23HF:	XOR	AL,AL
12DE E982F8			JMP	FAIL
12E1 E818F5		G24H:	CALL	RA
12E4 3C02			CMP	AL,2
12E6 7517			JNZ	G24HF
12E8 A02429			MOV	AL,[OPCODE]
12EB 2438			AND	AL,38H
12ED A22529			MOV	[MODRM],AL
12F0 A02129			MOV	AL,[ARGS+2]
12F3 3C02			CMP	AL,2
12F5 7412			JZ	G24HW
12F7 3C03			CMP	AL,3
12F9 7416			JZ	G24HD
12FB 3C04			CMP	AL,4
12FD 7405			JZ	G24HQ
12FF B001		G24HF:	MOV	AL,1
1301 E95FF8			JMP	FAIL
1304 800E252928		G24HQ:	OR	BYTE PTR [MODRM],28H
1309 C6062429DF		G24HW:	MOV	BYTE PTR [OPCODE],0DFH
130E E9A6F7			JMP	MMODRM
1311 C6062429DB		G24HD:	MOV	BYTE PTR [OPCODE],0DBH
1316 E99EF7			JMP	MMODRM
1319 8AE0		HALX:	MOV	AH,AL
131B D0EC			SHR	AH,1
131D D0EC			SHR	AH,1
131F D0EC			SHR	AH,1
1321 D0EC			SHR	AH,1
1323 240F			AND	AL,0FH
1325 3C0A			CMP	AL,0AH
1327 7202			JC	HALX1
1329 0407			ADD	AL,7
132B 86C4		HALX1:	XCHG	AL,AH
132D 3C0A			CMP	AL,0AH
132F 7202			JC	HALX2
1331 0407			ADD	AL,7
1333 053030		HALX2:	ADD	AX,3030H
1336 AB				STOSW
1337 C3				RET
1338 803E2429EB		RELBD:	CMP	BYTE PTR [OPCODE],0EBH
133D 750B			JNZ	NOTJMP
133F 56				PUSH	SI
1340 BEE91D			MOV	SI,OFFSET _SHORT+1
1343 A5				MOVSW
1344 A5				MOVSW
1345 A4				MOVSB
1346 5E				POP	SI
1347 B020			MOV	AL,20H
1349 AA				STOSB
134A B8242B		NOTJMP:	MOV	AX,2B24H
134D AB				STOSW
134E AC				LODSB
134F 0402			ADD	AL,2
1351 7901			JNS	RELBNM
1353 4F				DEC	DI
1354 98			RELBNM:	CBW
1355 85C0		WHAS:	TEST	AX,AX
1357 7906			JNS	WHA
1359 F7D8			NEG	AX
135B C6052D			MOV	BYTE PTR [DI],2DH
135E 47				INC	DI
135F 56			WHA:	PUSH	SI
1360 50				PUSH	AX
1361 B91000			MOV	CX,16
1364 E810F4			CALL	WN
1367 58				POP	AX
1368 5E				POP	SI
1369 3D0900			CMP	AX,9
136C 7603			JNA	WHA0
136E B048			MOV	AL,48H
1370 AA				STOSB
1371 C3			WHA0:	RET
1372 FC			WREG:	CLD
1373 56				PUSH	SI
1374 8BF0			MOV	SI,AX
1376 D1EE			SHR	SI,1
1378 D1EE			SHR	SI,1
137A 83E60E			AND	SI,0EH
137D 81C68E27			ADD	SI,OFFSET REGS
1381 03361D29			ADD	SI,[WADJ]
1385 A5				MOVSW
1386 5E				POP	SI
1387 C3				RET
1388 A02429		PSRD:	MOV	AL,[OPCODE]
138B D0E8		WSR:	SHR	AL,1
138D D0E8			SHR	AL,1
138F 250600			AND	AX,6
1392 05AE27			ADD	AX,OFFSET REGS+20H
1395 96				XCHG	AX,SI
1396 A5				MOVSW
1397 96				XCHG	AX,SI
1398 C3				RET
1399 FC			WSPR:	CLD
139A 32C0			XOR	AL,AL
139C 86062329			XCHG	AL,[SEGPREF]
13A0 84C0			TEST	AL,AL
13A2 7406			JZ	WSPR0
13A4 E8E4FF			CALL	WSR
13A7 B03A			MOV	AL,3AH
13A9 AA				STOSB
13AA C3			WSPR0:	RET
13AB A02529		REGFD:	MOV	AL,[MODRM]
13AE 2407			AND	AL,7
13B0 3C01			CMP	AL,1
13B2 7413			JZ	WFST0
13B4 50			WFST:	PUSH	AX
13B5 2407			AND	AL,7
13B7 0C30			OR	AL,30H
13B9 B428			MOV	AH,28H
13BB 86C4			XCHG	AL,AH
13BD 50				PUSH	AX
13BE A1B627			MOV	AX,[REGS+28H]
13C1 AB				STOSW
13C2 58				POP	AX
13C3 AB				STOSW
13C4 40				INC	AX
13C5 AA				STOSB
13C6 58				POP	AX
13C7 C3			WFST0:	RET
13C8 32D2		LFPR:	XOR	DL,DL
13CA 86162229			XCHG	DL,[FPREF]
13CE 84D2			TEST	DL,DL
13D0 7464			JZ	LSPR0
13D2 FC				CLD
13D3 57				PUSH	DI
13D4 BFAF2B			MOV	DI,OFFSET TEMP+1
13D7 B009			MOV	AL,9
13D9 AA				STOSB
13DA 56				PUSH	SI
13DB BE2D1E			MOV	SI,OFFSET _WAIT
13DE A5				MOVSW
13DF A5				MOVSW
13E0 5E				POP	SI
13E1 EB1A			JMP	SHORT LSPR1
13E3 32D2		LSPR:	XOR	DL,DL
13E5 86162329			XCHG	DL,[SEGPREF]
13E9 84D2			TEST	DL,DL
13EB 7449			JZ	LSPR0
13ED FC				CLD
13EE 57				PUSH	DI
13EF BFAF2B			MOV	DI,OFFSET TEMP+1
13F2 B009			MOV	AL,9
13F4 AA				STOSB
13F5 8AC2			MOV	AL,DL
13F7 E891FF			CALL	WSR
13FA B03A			MOV	AL,3AH
13FC AA				STOSB
13FD BDAF2B		LSPR1:	MOV	BP,OFFSET TEMP+1
1400 E8ED00			CALL	TABS
1403 A10C29			MOV	AX,[PC]
1406 03061429			ADD	AX,[VORG]
140A 50				PUSH	AX
140B 8AC4			MOV	AL,AH
140D E809FF			CALL	HALX
1410 58				POP	AX
1411 E805FF			CALL	HALX
1414 B020			MOV	AL,20H
1416 AA				STOSB
1417 8AC2			MOV	AL,DL
1419 E8FDFE			CALL	HALX
141C B80D0A			MOV	AX,0A0DH
141F AB				STOSW
1420 59				POP	CX
1421 56				PUSH	SI
1422 BEAF2C			MOV	SI,OFFSET OUTPUT+1
1425 2BCE			SUB	CX,SI
1427 F3A4			REPZ	MOVSB
1429 8BCF			MOV	CX,DI
142B BEAF2B			MOV	SI,OFFSET TEMP+1
142E 2BCE			SUB	CX,SI
1430 BFAF2C			MOV	DI,OFFSET OUTPUT+1
1433 F3A4			REPZ	MOVSB
1435 5E				POP	SI
1436 C3			LSPR0:	RET
1437 56			GRP:	PUSH	SI
1438 8A04			MOV	AL,[SI]
143A D0E8			SHR	AL,1
143C D0E8			SHR	AL,1
143E 250E00			AND	AX,0EH
1441 03C2			ADD	AX,DX
1443 8BF0			MOV	SI,AX
1445 8B34			MOV	SI,[SI]
1447 E883F7			CALL	WRM
144A 5E				POP	SI
144B B009			MOV	AL,9
144D AA				STOSB
144E AC				LODSB
144F 3CC0		WPTR:	CMP	AL,0C0H
1451 7324			JNC	WDISP
1453 50				PUSH	AX
1454 56				PUSH	SI
1455 A11D29			MOV	AX,[WADJ]
1458 3C10			CMP	AL,10H
145A 8B367E27			MOV	SI,[SIZES+2]
145E 7408			JZ	WPTRA
1460 8BF0			MOV	SI,AX
1462 D1E6			SHL	SI,1
1464 8BB47C27			MOV	SI,[SI+SIZES]
1468 E862F7		WPTRA:	CALL	WRM
146B BE531D			MOV	SI,OFFSET _PTR
146E B020			MOV	AL,20H
1470 AA				STOSB
1471 E859F7			CALL	WRM
1474 AA				STOSB
1475 5E				POP	SI
1476 58				POP	AX
1477 3CC0		WDISP:	CMP	AL,0C0H
1479 7213			JC	WDRM
147B 56				PUSH	SI
147C 8BF0			MOV	SI,AX
147E 83E607			AND	SI,7
1481 D1E6			SHL	SI,1
1483 81C68E27			ADD	SI,OFFSET REGS
1487 03361D29			ADD	SI,[WADJ]
148B A5				MOVSW
148C 5E				POP	SI
148D C3				RET
148E 50			WDRM:	PUSH	AX
148F E807FF			CALL	WSPR
1492 B05B			MOV	AL,5BH
1494 AA				STOSB
1495 58				POP	AX
1496 50				PUSH	AX
1497 24C7			AND	AL,0C7H
1499 3C06			CMP	AL,6
149B 7506			JNZ	WDR
149D AD				LODSW
149E E8BEFE			CALL	WHA
14A1 EB48			JMP	SHORT WDX
14A3 56			WDR:	PUSH	SI
14A4 BB8627			MOV	BX,OFFSET _DISP
14A7 2407			AND	AL,7
14A9 D7				XLATB
14AA 8AE0			MOV	AH,AL
14AC 250FF0			AND	AX,0F00FH
14AF D0EC			SHR	AH,1
14B1 D0EC			SHR	AH,1
14B3 D0EC			SHR	AH,1
14B5 D0E0			SHL	AL,1
14B7 33D2			XOR	DX,DX
14B9 86D4			XCHG	DL,AH
14BB 058E27			ADD	AX,OFFSET REGS
14BE 8BF0			MOV	SI,AX
14C0 A5				MOVSW
14C1 84D2			TEST	DL,DL
14C3 7409			JZ	WD1R
14C5 B02B			MOV	AL,2BH
14C7 AA				STOSB
14C8 BE8E27			MOV	SI,OFFSET REGS
14CB 03F2			ADD	SI,DX
14CD A5				MOVSW
14CE 5E			WD1R:	POP	SI
14CF 58				POP	AX
14D0 50				PUSH	AX
14D1 3C40			CMP	AL,40H
14D3 7216			JC	WDX
14D5 3C80			CMP	AL,80H
14D7 7203			JC	WDD8
14D9 AD				LODSW
14DA EB02			JMP	SHORT WDD
14DC AC			WDD8:	LODSB
14DD 98				CBW
14DE 85C0		WDD:	TEST	AX,AX
14E0 7806			JS	WDM
14E2 7407			JZ	WDX
14E4 C6052B			MOV	BYTE PTR [DI],2BH
14E7 47				INC	DI
14E8 E86AFE		WDM:	CALL	WHAS
14EB B05D		WDX:	MOV	AL,5DH
14ED AA				STOSB
14EE 58				POP	AX
14EF C3				RET
14F0 FC			TABS:	CLD
14F1 56				PUSH	SI
14F2 8BF5			MOV	SI,BP
14F4 8BCF			MOV	CX,DI
14F6 2BCD			SUB	CX,BP
14F8 7628			JNA	TABS0
14FA 32E4			XOR	AH,AH
14FC AC			TABS1:	LODSB
14FD 3C09			CMP	AL,9
14FF 750A			JNZ	TABS2
1501 8AC4			MOV	AL,AH
1503 2407			AND	AL,7
1505 34FF			XOR	AL,0FFH
1507 0408			ADD	AL,8
1509 02E0			ADD	AH,AL
150B FEC4		TABS2:	INC	AH
150D E2ED			LOOP	TABS1
150F B009		TABS3:	MOV	AL,9
1511 B105			MOV	CL,5
1513 D0EC			SHR	AH,1
1515 D0EC			SHR	AH,1
1517 D0EC			SHR	AH,1
1519 2ACC			SUB	CL,AH
151B 7602			JNA	TABS4
151D F3AA			REPZ	STOSB
151F B03B		TABS4:	MOV	AL,3BH
1521 AA				STOSB
1522 5E			TABS0:	POP	SI
1523 C3				RET
1524 4F			SINGD:	DEC	DI
1525 C3				RET
1526 A02429		SPREFD:	MOV	AL,[OPCODE]
1529 A22329			MOV	[SEGPREF],AL
152C 4F				DEC	DI
152D E916F0			JMP	DSAS
1530 BDAF2C		ENDL:	MOV	BP,OFFSET OUTPUT+1
1533 E8BAFF			CALL	TABS
1536 A10C29			MOV	AX,[PC]
1539 8BEE			MOV	BP,SI
153B BE2F2C			MOV	SI,OFFSET INPUT+1
153E 2BEE			SUB	BP,SI
1540 F6062329FF			TEST	BYTE PTR [SEGPREF],0FFH
1545 7403			JZ	SKSPR
1547 40				INC	AX
1548 46				INC	SI
1549 4D				DEC	BP
154A A30E29		SKSPR:	MOV	[PC+2],AX
154D E883EE			CALL	LLWB
1550 B80D0A			MOV	AX,0A0DH
1553 AB				STOSW
1554 C3				RET
1555 32C0		ACCID:	XOR	AL,AL
1557 E818FE			CALL	WREG
155A E99802			JMP	G03DT
155D AC			MRD:	LODSB
155E 50				PUSH	AX
155F E815FF			CALL	WDISP
1562 B02C			MOV	AL,2CH
1564 AA				STOSB
1565 58				POP	AX
1566 E909FE			JMP	WREG
1569 B010		RWMD:	MOV	AL,10H
156B A21D29			MOV	[WADJ],AL
156E AC			RMD:	LODSB
156F E800FE			CALL	WREG
1572 50				PUSH	AX
1573 B02C			MOV	AL,2CH
1575 AA				STOSB
1576 58				POP	AX
1577 E9FDFE			JMP	WDISP
157A B010		MSD:	MOV	AL,10H
157C A21D29			MOV	[WADJ],AL
157F AC				LODSB
1580 50				PUSH	AX
1581 E8F3FE			CALL	WDISP
1584 B02C			MOV	AL,2CH
1586 AA				STOSB
1587 58				POP	AX
1588 E900FE			JMP	WSR
158B B010		SMD:	MOV	AL,10H
158D A21D29			MOV	[WADJ],AL
1590 AC				LODSB
1591 50				PUSH	AX
1592 E8F6FD			CALL	WSR
1595 B02C			MOV	AL,2CH
1597 AA				STOSB
1598 58				POP	AX
1599 E9DBFE			JMP	WDISP
159C A19E27		ACCRD:	MOV	AX,[REGS+10H]
159F AB				STOSW
15A0 B02C			MOV	AL,2CH
15A2 AA				STOSB
15A3 B010		REGWD:	MOV	AL,10H
15A5 A21D29			MOV	[WADJ],AL
15A8 A02429			MOV	AL,[OPCODE]
15AB 0CC0			OR	AL,0C0H
15AD E9C7FE			JMP	WDISP
15B0 32C0		ACCMD:	XOR	AL,AL
15B2 E8BDFD			CALL	WREG
15B5 B02C			MOV	AL,2CH
15B7 AA				STOSB
15B8 E8DEFD			CALL	WSPR
15BB B05B			MOV	AL,5BH
15BD AA				STOSB
15BE AD				LODSW
15BF E89DFD			CALL	WHA
15C2 B05D			MOV	AL,5DH
15C4 AA				STOSB
15C5 C3				RET
15C6 E8D0FD		MACCD:	CALL	WSPR
15C9 B05B			MOV	AL,5BH
15CB AA				STOSB
15CC AD				LODSW
15CD E88FFD			CALL	WHA
15D0 B85D2C			MOV	AX,2C5DH
15D3 AB				STOSW
15D4 32C0			XOR	AL,AL
15D6 E999FD			JMP	WREG
15D9 AC			RMID:	LODSB
15DA E872FE			CALL	WPTR
15DD E91502			JMP	G03DT
15E0 A02429		RIMMD:	MOV	AL,[OPCODE]
15E3 56				PUSH	SI
15E4 250F00			AND	AX,0FH
15E7 D0E0			SHL	AL,1
15E9 50				PUSH	AX
15EA 058E27			ADD	AX,OFFSET REGS
15ED 8BF0			MOV	SI,AX
15EF A5				MOVSW
15F0 58				POP	AX
15F1 2410			AND	AL,10H
15F3 5E				POP	SI
15F4 A21D29			MOV	[WADJ],AL
15F7 E9FB01			JMP	G03DT
15FA B8242B		RELWD:	MOV	AX,2B24H
15FD AB				STOSW
15FE AD				LODSW
15FF 050300			ADD	AX,3
1602 7901			JNS	RELWNM
1604 4F				DEC	DI
1605 E94DFD		RELWNM:	JMP	WHAS
1608 AC			AAMD:	LODSB
1609 3C0A			CMP	AL,0AH
160B 7405			JZ	AAMD0
160D 32E4			XOR	AH,AH
160F E84DFD			CALL	WHA
1612 C3			AAMD0:	RET
1613 AC			ESCD:	LODSB
1614 8AE0			MOV	AH,AL
1616 A22529			MOV	[MODRM],AL
1619 A02429			MOV	AL,[OPCODE]
161C 2507F8			AND	AX,0F807H
161F B103			MOV	CL,3
1621 D3C8			ROR	AX,CL
1623 86C4			XCHG	AL,AH
1625 49				DEC	CX
1626 D3E0			SHL	AX,CL
1628 055022			ADD	AX,OFFSET BIN87
162B 56			CNVTB:	PUSH	SI
162C 8BF0			MOV	SI,AX
162E AD				LODSW
162F 56				PUSH	SI
1630 8BF0			MOV	SI,AX
1632 32ED			XOR	CH,CH
1634 8A0C			MOV	CL,[SI]
1636 E306			JCXZ	CNVTB0
1638 46				INC	SI
1639 F3A4			REPZ	MOVSB
163B B009			MOV	AL,9
163D AA				STOSB
163E 5E			CNVTB0:	POP	SI
163F AD				LODSW
1640 5E				POP	SI
1641 FFE0			JMP	AX
1643 AC			INTD:	LODSB
1644 32E4			XOR	AH,AH
1646 E916FD			JMP	WHA
1649 B033		INT3D:	MOV	AL,33H
164B AA				STOSB
164C C3				RET
164D 56			RETFD:	PUSH	SI
164E BE4319			MOV	SI,OFFSET _FAR+1
1651 A5				MOVSW
1652 A4				MOVSB
1653 5E				POP	SI
1654 F606242901			TEST	BYTE PTR [OPCODE],1
1659 7507			JNZ	NORET
165B B020			MOV	AL,20H
165D AA				STOSB
165E AD			RETD:	LODSW
165F E8FDFC			CALL	WHA
1662 C3			NORET:	RET
1663 A11D29		ADIOD:	MOV	AX,[WADJ]
1666 058E27			ADD	AX,OFFSET REGS
1669 56				PUSH	SI
166A 8BF0			MOV	SI,AX
166C AD				LODSW
166D 5E				POP	SI
166E 8B16A227			MOV	DX,[REGS+14H]
1672 F606242902			TEST	BYTE PTR [OPCODE],2
1677 7401			JZ	ADIOD0
1679 92				XCHG	AX,DX
167A AB			ADIOD0:	STOSW
167B B02C			MOV	AL,2CH
167D AA				STOSB
167E 8BC2			MOV	AX,DX
1680 AB				STOSW
1681 C3				RET
1682 AC			IBAPD:	LODSB
1683 32E4			XOR	AH,AH
1685 E8D7FC			CALL	WHA
1688 B02C			MOV	AL,2CH
168A AA				STOSB
168B B0C0			MOV	AL,0C0H
168D E9E7FD			JMP	WDISP
1690 AD			SEGOFD:	LODSW
1691 50				PUSH	AX
1692 AD				LODSW
1693 E8C9FC			CALL	WHA
1696 B03A			MOV	AL,3AH
1698 AA				STOSB
1699 58				POP	AX
169A E9C2FC			JMP	WHA
169D A02529		APFD:	MOV	AL,[MODRM]
16A0 2407			AND	AL,7
16A2 3C01			CMP	AL,1
16A4 740B			JZ	APFD1
16A6 E80BFD			CALL	WFST
16A9 B02C			MOV	AL,2CH
16AB AA				STOSB
16AC 32C0			XOR	AL,AL
16AE E903FD			JMP	WFST
16B1 4F			APFD1:	DEC	DI
16B2 C3				RET
16B3 A02529		ARIFD:	MOV	AL,[MODRM]
16B6 3CC0			CMP	AL,0C0H
16B8 7313			JNC	ARIFDR
16BA 33C0			XOR	AX,AX
16BC 803E2429DC			CMP	BYTE PTR [OPCODE],0DCH
16C1 F5				CMC
16C2 1402			ADC	AL,2
16C4 A31D29			MOV	[WADJ],AX
16C7 A02529			MOV	AL,[MODRM]
16CA E982FD			JMP	WPTR
16CD 803E2429DC		ARIFDR:	CMP	BYTE PTR [OPCODE],0DCH
16D2 720B			JC	ARIFD0
16D4 E8DDFC			CALL	WFST
16D7 B02C			MOV	AL,2CH
16D9 AA				STOSB
16DA 32C0			XOR	AL,AL
16DC E9D5FC			JMP	WFST
16DF 32C0		ARIFD0:	XOR	AL,AL
16E1 E8D0FC			CALL	WFST
16E4 B02C			MOV	AL,2CH
16E6 AA				STOSB
16E7 A02529			MOV	AL,[MODRM]
16EA E9C7FC			JMP	WFST
16ED 32C0		FEND:	XOR	AL,AL
16EF 86062229			XCHG	AL,[FPREF]
16F3 33D2			XOR	DX,DX
16F5 3C9B			CMP	AL,9BH
16F7 7503			JNZ	FEND0
16F9 BA0800			MOV	DX,8
16FC 81C25C27		FEND0:	ADD	DX,OFFSET _SG5
1700 A02529		GRPF:	MOV	AL,[MODRM]
1703 250700			AND	AX,7
1706 D1E0			SHL	AX,1
1708 03C2			ADD	AX,DX
170A 56			GRPF1:	PUSH	SI
170B 8BF0			MOV	SI,AX
170D 8B34			MOV	SI,[SI]
170F 8A0C			MOV	CL,[SI]
1711 32ED			XOR	CH,CH
1713 E306			JCXZ	GRPF0
1715 46				INC	SI
1716 FC				CLD
1717 F3A4			REPZ	MOVSB
1719 5E				POP	SI
171A C3				RET
171B 5E			GRPF0:	POP	SI
171C A02429		INVFD:	MOV	AL,[OPCODE]
171F 8A262529			MOV	AH,[MODRM]
1723 B103			MOV	CL,3
1725 D2CC			ROR	AH,CL
1727 250707			AND	AX,707H
172A D2C0			ROL	AL,CL
172C 0AC4			OR	AL,AH
172E 32E4			XOR	AH,AH
1730 E82CFC			CALL	WHA
1733 B02C			MOV	AL,2CH
1735 AA				STOSB
1736 A02529		DISPDD:	MOV	AL,[MODRM]
1739 E93BFD			JMP	WDISP
173C BA0100		FILDD:	MOV	DX,1
173F A02429			MOV	AL,[OPCODE]
1742 3CDB			CMP	AL,0DBH
1744 7422			JZ	FLDDW
1746 F606252920			TEST	BYTE PTR [MODRM],20H
174B 741C			JZ	FLDDD
174D EB18			JMP	SHORT FLDDQ
174F A02529		FLDD:	MOV	AL,[MODRM]
1752 3CC0			CMP	AL,0C0H
1754 7203			JC	FLDDR
1756 E95BFC			JMP	WFST
1759 BA0200		FLDDR:	MOV	DX,2
175C A02429			MOV	AL,[OPCODE]
175F 3CDD			CMP	AL,0DDH
1761 7405			JZ	FLDDW
1763 3CD9			CMP	AL,0D9H
1765 7402			JZ	FLDDD
1767 42			FLDDQ:	INC	DX
1768 42			FLDDW:	INC	DX
1769 89161D29		FLDDD:	MOV	[WADJ],DX
176D A02529			MOV	AL,[MODRM]
1770 E9DCFC			JMP	WPTR
1773 BA6C27		FSD6:	MOV	DX,OFFSET _SG6
1776 EB03			JMP	SHORT FSD
1778 BA7427		FSD7:	MOV	DX,OFFSET _SG7
177B A02529		FSD:	MOV	AL,[MODRM]
177E 50				PUSH	AX
177F 2408			AND	AL,8
1781 D0E8			SHR	AL,1
1783 D0E8			SHR	AL,1
1785 32E4			XOR	AH,AH
1787 03D0			ADD	DX,AX
1789 32C0			XOR	AL,AL
178B 86062229			XCHG	AL,[FPREF]
178F 3C9B			CMP	AL,9BH
1791 58				POP	AX
1792 7503			JNZ	FSD0
1794 83C204			ADD	DX,4
1797 E866FF		FSD0:	CALL	GRPF
179A E9DAFC			JMP	WDISP
179D 33C0		INTFD:	XOR	AX,AX
179F 803E2429DE			CMP	BYTE PTR [OPCODE],0DEH
17A4 1401			ADC	AL,1
17A6 A31D29			MOV	[WADJ],AX
17A9 A02529			MOV	AL,[MODRM]
17AC E9A0FC			JMP	WPTR
17AF A02529		SGFD:	MOV	AL,[MODRM]
17B2 251F00			AND	AX,1FH
17B5 D1E0			SHL	AX,1
17B7 051C27			ADD	AX,OFFSET _SGS
17BA E94DFF			JMP	GRPF1
17BD 4F			WAITD:	DEC	DI
17BE A02429			MOV	AL,[OPCODE]
17C1 A22229			MOV	[FPREF],AL
17C4 8B261829			MOV	SP,[STK]
17C8 E97BED			JMP	DSAS
17CB BAEC26		G02D:	MOV	DX,OFFSET _G02D
17CE E866FC			CALL	GRP
17D1 B02C			MOV	AL,2CH
17D3 AA				STOSB
17D4 F606242902			TEST	BYTE PTR [OPCODE],2
17D9 7405			JZ	G02D1
17DB A19027			MOV	AX,[REGS+2]
17DE AB				STOSW
17DF C3				RET
17E0 B031		G02D1:	MOV	AL,31H
17E2 AA				STOSB
17E3 C3				RET
17E4 BAFC26		G03D:	MOV	DX,OFFSET _G03D
17E7 E84DFC			CALL	GRP
17EA A830			TEST	AL,30H
17EC 7407			JZ	G03DT
17EE C3				RET
17EF BADC26		G01D:	MOV	DX,OFFSET _G01D
17F2 E842FC			CALL	GRP
17F5 B02C		G03DT:	MOV	AL,2CH
17F7 AA				STOSB
17F8 98				CBW
17F9 AC				LODSB
17FA F6061D29FF			TEST	BYTE PTR [WADJ],0FFH
17FF 740A			JZ	G03D0
1801 98				CBW
1802 803E242983			CMP	BYTE PTR [OPCODE],83H
1807 7402			JZ	G03D0
1809 4E				DEC	SI
180A AD				LODSW
180B E951FB		G03D0:	JMP	WHA
180E 56			G04D:	PUSH	SI
180F AC				LODSB
1810 D0E8			SHR	AL,1
1812 D0E8			SHR	AL,1
1814 250E00			AND	AX,0EH
1817 50				PUSH	AX
1818 050C27			ADD	AX,OFFSET _G04D
181B 8BF0			MOV	SI,AX
181D 8B34			MOV	SI,[SI]
181F E8ABF3			CALL	WRM
1822 B009			MOV	AL,9
1824 AA				STOSB
1825 58				POP	AX
1826 5E				POP	SI
1827 D0E8			SHR	AL,1
1829 3C07			CMP	AL,7
182B 7424			JZ	INVD
182D 3C05			CMP	AL,5
182F 7410			JZ	G04DF
1831 3C04			CMP	AL,4
1833 7418			JZ	DISPD
1835 3C03			CMP	AL,3
1837 7408			JZ	G04DF
1839 3C02			CMP	AL,2
183B 7410			JZ	DISPD
183D AC				LODSB
183E E90EFC			JMP	WPTR
1841 8A04		G04DF:	MOV	AL,[SI]
1843 56				PUSH	SI
1844 BE4319			MOV	SI,OFFSET _FAR+1
1847 B020			MOV	AL,20H
1849 A5				MOVSW
184A A4				MOVSB
184B AA				STOSB
184C 5E				POP	SI
184D AC			DISPD:	LODSB
184E E926FC			JMP	WDISP
1851 A02429		INVD:	MOV	AL,[OPCODE]
1854 32E4			XOR	AH,AH
1856 E906FB			JMP	WHA
1859 D800		I8086	DW	216
185B 034141413700	_AAA	DB	3,"AAA",37H,0
1861 03414144D507	_AAD	DB	3,"AAD",0D5H,7
1867 0341414DD407	_AAM	DB	3,"AAM",0D4H,7
186D 034141533F00	_AAS	DB	3,"AAS",3FH,0
1873 034144431001	_ADC	DB	3,"ADC",10H,1
1879 034144440001	_ADD	DB	3,"ADD",0,1
187F 03414E442001	_AND	DB	3,"AND",20H,1
1885 04425954450115	_BYTE	DB	4,"BYTE",1,15H
188C 0443414C4C1006	_CALL	DB	4,"CALL",10H,6
1893 034342579800	_CBW	DB	3,"CBW",98H,0
1899 03434C43F800	_CLC	DB	3,"CLC",0F8H,0
189F 03434C44FC00	_CLD	DB	3,"CLD",0FCH,0
18A5 03434C49FA00	_CLI	DB	3,"CLI",0FAH,0
18AB 03434D43F500	_CMC	DB	3,"CMC",0F5H,0
18B1 03434D503801	_CMP	DB	3,"CMP",38H,1
18B7 05434D505342A600	_CMPSB	DB	5,"CMPSB",0A6H,0
18BF 05434D505357A700	_CMPSW	DB	5,"CMPSW",0A7H,0
18C7 034357449900	_CWD	DB	3,"CWD",99H,0
18CD 034441412700	_DAA	DB	3,"DAA",27H,0
18D3 034441532F00	_DAS	DB	3,"DAS",2FH,0
18D9 0244420114		_DB	DB	2,"DB",1,14H
18DE 0244440314			DB	2,"DD",3,14H
18E3 034445430804	_DEC	DB	3,"DEC",8,4
18E9 034449563003	_DIV	DB	3,"DIV",30H,3
18EF 0244510414			DB	2,"DQ",4,14H
18F4 0244530016			DB	2,"DS",0,16H
18F9 0244540514			DB	2,"DT",5,14H
18FE 0244570214			DB	2,"DW",2,14H
1903 0544574F52440315	_DWORD	DB	5,"DWORD",3,15H
190B 03454E440012		DB	3,"END",0,12H
1911 03455155000D		DB	3,"EQU",0,0DH
1917 044556454E9017		DB	4,"EVEN",90H,17H
191E 03455343D80E	_ESC	DB	3,"ESC",0D8H,0EH
1924 054632584D31F019	_F2XM1	DB	5,"F2XM1",0F0H,19H
192C 0446414253E119	_FABS	DB	4,"FABS",0E1H,19H
1933 04464144440023	_FADD	DB	4,"FADD",0,23H
193A 054641444450C01A	_FADDP	DB	5,"FADDP",0C0H,1AH
1942 034641520A15	_FAR	DB	3,"FAR",0AH,15H
1948 0446424C44271C	_FBLD	DB	4,"FBLD",27H,1CH
194F 054642535450371C	_FBSTP	DB	5,"FBSTP",37H,1CH
1957 0446434853E019	_FCHS	DB	4,"FCHS",0E0H,19H
195E 0546434C4558121E	_FCLEX	DB	5,"FCLEX",12H,1EH
1966 0446434F4D1022	_FCOM	DB	4,"FCOM",10H,22H
196D 0546434F4D501822	_FCOMP	DB	5,"FCOMP",18H,22H
1975 0646434F4D5050D9	_FCOMPP	DB	6,"FCOMPP",0D9H,1DH
197D 1D
197E 0746444543535450	_FDECSTP	DB	7,"FDECSTP",0F6H,19H
1986 F619
1988 054644495349111E	_FDISI	DB	5,"FDISI",11H,1EH
1990 04464449560623	_FDIV	DB	4,"FDIV",6,23H
1997 054644495650F81A	_FDIVP	DB	5,"FDIVP",0F8H,1AH
199F 0546444956520723	_FDIVR	DB	5,"FDIVR",7,23H
19A7 06464449565250F0	_FDIVRP	DB	6,"FDIVRP",0F0H,1AH
19AF 1A
19B0 0446454E49101E	_FENI	DB	4,"FENI",10H,1EH
19B7 0546465245450520	_FFREE	DB	5,"FFREE",05H,20H
19BF 0646465245455007	_FFREEP	DB	6,"FFREEP",07H,20H
19C7 20
19C8 054649414444021B	_FIADD	DB	5,"FIADD",02H,1BH
19D0 054649434F4D121B	_FICOM	DB	5,"FICOM",12H,1BH
19D8 064649434F4D501A	_FICOMP	DB	6,"FICOMP",1AH,1BH
19E0 1B
19E1 054649444956321B	_FIDIV	DB	5,"FIDIV",32H,1BH
19E9 064649444956523A	_FIDIVR	DB	6,"FIDIVR",3AH,1BH
19F1 1B
19F2 0446494C440724	_FILD	DB	4,"FILD",07H,24H
19F9 0546494D554C0A1B	_FIMUL	DB	5,"FIMUL",0AH,1BH
1A01 0746494E43535450	_FINCSTP	DB	7,"FINCSTP",0F7H,19H
1A09 F719
1A0B 0546494E4954131E	_FINIT	DB	5,"FINIT",13H,1EH
1A13 0446495354131B	_FIST	DB	4,"FIST",13H,1BH
1A1A 0546495354501F24	_FISTP	DB	5,"FISTP",1FH,24H
1A22 054649535542221B	_FISUB	DB	5,"FISUB",22H,1BH
1A2A 064649535542522A	_FISUBR	DB	6,"FISUBR",2AH,1BH
1A32 1B
1A33 03464C440018	_FLD	DB	3,"FLD",0,18H
1A39 04464C4431E819	_FLD1	DB	4,"FLD1",0E8H,19H
1A40 05464C444357291C	_FLDCW	DB	5,"FLDCW",29H,1CH
1A48 06464C44454E5621	_FLDENV	DB	6,"FLDENV",21H,1CH
1A50 1C
1A51 06464C444C3245EA	_FLDL2E	DB	6,"FLDL2E",0EAH,19H
1A59 19
1A5A 06464C444C3254E9	_FLDL2T	DB	6,"FLDL2T",0E9H,19H
1A62 19
1A63 06464C444C4732EC	_FLDLG2	DB	6,"FLDLG2",0ECH,19H
1A6B 19
1A6C 06464C444C4E32ED	_FLDLN2	DB	6,"FLDLN2",0EDH,19H
1A74 19
1A75 05464C445049EB19	_FLDPI	DB	5,"FLDPI",0EBH,19H
1A7D 04464C445AEE19	_FLDZ	DB	4,"FLDZ",0EEH,19H
1A84 04464D554C0123	_FMUL	DB	4,"FMUL",1,23H
1A8B 05464D554C50C81A	_FMULP	DB	5,"FMULP",0C8H,1AH
1A93 06464E434C455802	_FNCLEX	DB	6,"FNCLEX",02H,1EH
1A9B 1E
1A9C 06464E4449534901	_FNDISI	DB	6,"FNDISI",01H,1EH
1AA4 1E
1AA5 05464E454E49001E	_FNENI	DB	5,"FNENI",00H,1EH
1AAD 06464E494E495403	_FNINIT	DB	6,"FNINIT",03H,1EH
1AB5 1E
1AB6 04464E4F50D019	_FNOP	DB	4,"FNOP",0D0H,19H
1ABD 06464E5341564535	_FNSAVE	DB	6,"FNSAVE",35H,1CH
1AC5 1C
1AC6 07464E5354454E56	_FNSTENV	DB	7,"FNSTENV",31H,1CH
1ACE 311C
1AD0 06464E5354435739	_FNSTCW	DB	6,"FNSTCW",39H,1CH
1AD8 1C
1AD9 06464E535453573D	_FNSTSW	DB	6,"FNSTSW",3DH,1CH
1AE1 1C
1AE2 0646504154414EF3	_FPATAN	DB	6,"FPATAN",0F3H,19H
1AEA 19
1AEB 05465052454DF819	_FPREM	DB	5,"FPREM",0F8H,19H
1AF3 05465054414EF219	_FPTAN	DB	5,"FPTAN",0F2H,19H
1AFB 0746524E44494E54	_FRNDINT	DB	7,"FRNDINT",0FCH,19H
1B03 FC19
1B05 06465253544F5225	_FRSTOR	DB	6,"FRSTOR",25H,1CH
1B0D 1C
1B0E 0546534156453521	_FSAVE	DB	5,"FSAVE",35H,21H
1B16 06465343414C45FD	_FSCALE	DB	6,"FSCALE",0FDH,19H
1B1E 19
1B1F 054653515254FA19	_FSQRT	DB	5,"FSQRT",0FAH,19H
1B27 03465354111F	_FST	DB	3,"FST",11H,1FH
1B2D 0546535443573921	_FSTCW	DB	5,"FSTCW",39H,21H
1B35 06465354454E5631	_FSTENV	DB	6,"FSTENV",31H,21H
1B3D 21
1B3E 04465354500118	_FSTP	DB	4,"FSTP",1,18H
1B45 0546535453573D21	_FSTSW	DB	5,"FSTSW",3DH,21H
1B4D 04465355420423	_FSUB	DB	4,"FSUB",4,23H
1B54 054653554250E81A	_FSUBP	DB	5,"FSUBP",0E8H,1AH
1B5C 0546535542520523	_FSUBR	DB	5,"FSUBR",5,23H
1B64 06465355425250E0	_FSUBRP	DB	6,"FSUBRP",0E0H,1AH
1B6C 1A
1B6D 0446545354E419	_FTST	DB	4,"FTST",0E4H,19H
1B74 0546574149549B00		DB	5,"FWAIT",9BH,0
1B7C 044658414DE519	_FXAM	DB	4,"FXAM",0E5H,19H
1B83 04465843480920	_FXCH	DB	4,"FXCH",09H,20H
1B8A 0746585452414354	_FXTRACT	DB	7,"FXTRACT",0F4H,19H
1B92 F419
1B94 0546594C3258F119	_FYL2X	DB	5,"FYL2X",0F1H,19H
1B9C 0746594C32585031	_FYL2XP1	DB	7,"FYL2XP1",0F9H,19H
1BA4 F919
1BA6 03484C54F400	_HLT	DB	3,"HLT",0F4H,0
1BAC 04494449563803	_IDIV	DB	4,"IDIV",38H,3
1BB3 04494D554C2803	_IMUL	DB	4,"IMUL",28H,3
1BBA 02494EE411		_IN	DB	2,"IN",0E4H,11H
1BBF 03494E430004	_INC	DB	3,"INC",0,4
1BC5 07494E434C554445		DB	7,"INCLUDE",0,0FH
1BCD 000F
1BCF 03494E54CD0C	_INT	DB	3,"INT",0CDH,0CH
1BD5 04494E544FCE00	_INTO	DB	4,"INTO",0CEH,0
1BDC 0449524554CF00	_IRET	DB	4,"IRET",0CFH,0
1BE3 024A417705		_JA	DB	2,"JA",77H,5
1BE8 034A41457305		DB	3,"JAE",73H,5
1BEE 024A427205			DB	2,"JB",72H,5
1BF3 034A42457605		DB	3,"JBE",76H,5
1BF9 024A437205		_JC	DB	2,"JC",72H,5
1BFE 044A43585AE305	_JCXZ	DB	4,"JCXZ",0E3H,5
1C05 024A457405			DB	2,"JE",74H,5
1C0A 024A477F05		_JG	DB	2,"JG",7FH,5
1C0F 034A47457D05		DB	3,"JGE",7DH,5
1C15 024A4C7C05		_JL	DB	2,"JL",7CH,5
1C1A 034A4C457E05		DB	3,"JLE",7EH,5
1C20 034A4D502006	_JMP	DB	3,"JMP",20H,6
1C26 034A4E417605	_JNA	DB	3,"JNA",76H,5
1C2C 044A4E41457205		DB	4,"JNAE",72H,5
1C33 034A4E427305		DB	3,"JNB",73H,5
1C39 044A4E42457705		DB	4,"JNBE",77H,5
1C40 034A4E437305	_JNC	DB	3,"JNC",73H,5
1C46 034A4E457505		DB	3,"JNE",75H,5
1C4C 034A4E477E05	_JNG	DB	3,"JNG",7EH,5
1C52 044A4E47457C05		DB	4,"JNGE",7CH,5
1C59 034A4E4C7D05	_JNL	DB	3,"JNL",7DH,5
1C5F 044A4E4C457F05		DB	4,"JNLE",7FH,5
1C66 034A4E4F7105	_JNO	DB	3,"JNO",71H,5
1C6C 034A4E507B05	_JNP	DB	3,"JNP",7BH,5
1C72 034A4E537905	_JNS	DB	3,"JNS",79H,5
1C78 034A4E5A7505	_JNZ	DB	3,"JNZ",75H,5
1C7E 024A4F7005		_JO	DB	2,"JO",70H,5
1C83 024A507A05		_JP	DB	2,"JP",7AH,5
1C88 034A50457A05		DB	3,"JPE",7AH,5
1C8E 034A504F7B05		DB	3,"JPO",7BH,5
1C94 024A537805		_JS	DB	2,"JS",78H,5
1C99 024A5A7405		_JZ	DB	2,"JZ",74H,5
1C9E 044C4148469F00	_LAHF	DB	4,"LAHF",9FH,0
1CA5 034C4453C508	_LDS	DB	3,"LDS",0C5H,8
1CAB 034C45418D08	_LEA	DB	3,"LEA",8DH,8
1CB1 034C4553C408	_LES	DB	3,"LES",0C4H,8
1CB7 044C4F434BF00A	_LOCK	DB	4,"LOCK",0F0H,0AH
1CBE 054C4F445342AC00	_LODSB	DB	5,"LODSB",0ACH,0
1CC6 054C4F445357AD00	_LODSW	DB	5,"LODSW",0ADH,0
1CCE 044C4F4F50E205	_LOOP	DB	4,"LOOP",0E2H,5
1CD5 054C4F4F5045E105		DB	5,"LOOPE",0E1H,5
1CDD 064C4F4F504E45E0		DB	6,"LOOPNE",0E0H,5
1CE5 05
1CE6 064C4F4F504E5AE0	_LOOPNZ	DB	6,"LOOPNZ",0E0H,5
1CEE 05
1CEF 054C4F4F505AE105	_LOOPZ	DB	5,"LOOPZ",0E1H,5
1CF7 034D4F568809	_MOV	DB	3,"MOV",88H,9
1CFD 054D4F565342A400	_MOVSB	DB	5,"MOVSB",0A4H,0
1D05 054D4F565357A500	_MOVSW	DB	5,"MOVSW",0A5H,0
1D0D 034D554C2003	_MUL	DB	3,"MUL",20H,3
1D13 044E4541520915	_NEAR	DB	4,"NEAR",9,15H
1D1A 034E45471803	_NEG	DB	3,"NEG",18H,3
1D20 034E4F509000	_NOP	DB	3,"NOP",90H,0
1D26 034E4F541003	_NOT	DB	3,"NOT",10H,3
1D2C 064F464653455410	_OFFSET	DB	6,"OFFSET",10H,15H
1D34 15
1D35 024F520801		_OR	DB	2,"OR",8,1
1D3A 034F52470013		DB	3,"ORG",0,13H
1D40 034F5554E611	_OUT	DB	3,"OUT",0E6H,11H
1D46 03504F503804	_POP	DB	3,"POP",38H,4
1D4C 04504F50469D00	_POPF	DB	4,"POPF",9DH,0
1D53 035054521115	_PTR	DB	3,"PTR",11H,15H
1D59 04505553483004	_PUSH	DB	4,"PUSH",30H,4
1D60 0550555348469C00	_PUSHF	DB	5,"PUSHF",9CH,0
1D68 0551574F52440415	_QWORD	DB	5,"QWORD",4,15H
1D70 0352434C1002	_RCL	DB	3,"RCL",10H,2
1D76 035243521802	_RCR	DB	3,"RCR",18H,2
1D7C 03524550F30A		DB	3,"REP",0F3H,0AH
1D82 0452455045F30A		DB	4,"REPE",0F3H,0AH
1D89 055245504E45F20A		DB	5,"REPNE",0F2H,0AH
1D91 055245504E5AF20A	_REPNZ	DB	5,"REPNZ",0F2H,0AH
1D99 045245505AF30A	_REPZ	DB	4,"REPZ",0F3H,0AH
1DA0 03524554C30B	_RET	DB	3,"RET",0C3H,0BH
1DA6 03524F4C0002	_ROL	DB	3,"ROL",0,2
1DAC 03524F520802	_ROR	DB	3,"ROR",8,2
1DB2 04534148469E00	_SAHF	DB	4,"SAHF",9EH,0
1DB9 0353414C3002	_SAL	DB	3,"SAL",30H,2
1DBF 0453414C43D600	_SALC	DB	4,"SALC",0D6H,0
1DC6 035341523802	_SAR	DB	3,"SAR",38H,2
1DCC 035342421801	_SBB	DB	3,"SBB",18H,1
1DD2 055343415342AE00	_SCASB	DB	5,"SCASB",0AEH,0
1DDA 055343415357AF00	_SCASW	DB	5,"SCASW",0AFH,0
1DE2 0353484C2002	_SHL	DB	3,"SHL",20H,2
1DE8 0553484F52540815	_SHORT	DB	5,"SHORT",8,15H
1DF0 035348522802	_SHR	DB	3,"SHR",28H,2
1DF6 03535443F900	_STC	DB	3,"STC",0F9H,0
1DFC 03535444FD00	_STD	DB	3,"STD",0FDH,0
1E02 03535449FB00	_STI	DB	3,"STI",0FBH,0
1E08 0553544F5342AA00	_STOSB	DB	5,"STOSB",0AAH,0
1E10 0553544F5357AB00	_STOSW	DB	5,"STOSW",0ABH,0
1E18 035355422801	_SUB	DB	3,"SUB",28H,1
1E1E 0554425954450515	_TBYTE	DB	5,"TBYTE",5,15H
1E26 04544553540003	_TEST	DB	4,"TEST",0,3
1E2D 04574149549B00	_WAIT	DB	4,"WAIT",9BH,0
1E34 04574F52440215	_WORD	DB	4,"WORD",2,15H
1E3B 04584348478610	_XCHG	DB	4,"XCHG",86H,10H
1E42 05584C415442D700	_XLATB	DB	5,"XLATB",0D7H,0
1E4A 03584F523001	_XOR	DB	3,"XOR",30H,1
1E50 				EVEN
1E50 79185D15		BIN86	DW	_ADD,MRD
1E54 79185D15			DW	_ADD,MRD
1E58 79186E15			DW	_ADD,RMD
1E5C 79186E15			DW	_ADD,RMD
1E60 79185515			DW	_ADD,ACCID
1E64 79185515			DW	_ADD,ACCID
1E68 591D8813			DW	_PUSH,PSRD
1E6C 461D8813			DW	_POP,PSRD
1E70 351D5D15			DW	_OR,MRD
1E74 351D5D15			DW	_OR,MRD
1E78 351D6E15			DW	_OR,RMD
1E7C 351D6E15			DW	_OR,RMD
1E80 351D5515			DW	_OR,ACCID
1E84 351D5515			DW	_OR,ACCID
1E88 591D8813			DW	_PUSH,PSRD
1E8C 461D8813			DW	_POP,PSRD
1E90 73185D15			DW	_ADC,MRD
1E94 73185D15			DW	_ADC,MRD
1E98 73186E15			DW	_ADC,RMD
1E9C 73186E15			DW	_ADC,RMD
1EA0 73185515			DW	_ADC,ACCID
1EA4 73185515			DW	_ADC,ACCID
1EA8 591D8813			DW	_PUSH,PSRD
1EAC 461D8813			DW	_POP,PSRD
1EB0 CC1D5D15			DW	_SBB,MRD
1EB4 CC1D5D15			DW	_SBB,MRD
1EB8 CC1D6E15			DW	_SBB,RMD
1EBC CC1D6E15			DW	_SBB,RMD
1EC0 CC1D5515			DW	_SBB,ACCID
1EC4 CC1D5515			DW	_SBB,ACCID
1EC8 591D8813			DW	_PUSH,PSRD
1ECC 461D8813			DW	_POP,PSRD
1ED0 7F185D15			DW	_AND,MRD
1ED4 7F185D15			DW	_AND,MRD
1ED8 7F186E15			DW	_AND,RMD
1EDC 7F186E15			DW	_AND,RMD
1EE0 7F185515			DW	_AND,ACCID
1EE4 7F185515			DW	_AND,ACCID
1EE8 B8272615			DW	_GRP,SPREFD
1EEC CD182415			DW	_DAA,SINGD
1EF0 181E5D15			DW	_SUB,MRD
1EF4 181E5D15			DW	_SUB,MRD
1EF8 181E6E15			DW	_SUB,RMD
1EFC 181E6E15			DW	_SUB,RMD
1F00 181E5515			DW	_SUB,ACCID
1F04 181E5515			DW	_SUB,ACCID
1F08 B8272615			DW	_GRP,SPREFD
1F0C D3182415			DW	_DAS,SINGD
1F10 4A1E5D15			DW	_XOR,MRD
1F14 4A1E5D15			DW	_XOR,MRD
1F18 4A1E6E15			DW	_XOR,RMD
1F1C 4A1E6E15			DW	_XOR,RMD
1F20 4A1E5515			DW	_XOR,ACCID
1F24 4A1E5515			DW	_XOR,ACCID
1F28 B8272615			DW	_GRP,SPREFD
1F2C 5B182415			DW	_AAA,SINGD
1F30 B1185D15			DW	_CMP,MRD
1F34 B1185D15			DW	_CMP,MRD
1F38 B1186E15			DW	_CMP,RMD
1F3C B1186E15			DW	_CMP,RMD
1F40 B1185515			DW	_CMP,ACCID
1F44 B1185515			DW	_CMP,ACCID
1F48 B8272615			DW	_GRP,SPREFD
1F4C 6D182415			DW	_AAS,SINGD
1F50 BF1BA315			DW	_INC,REGWD
1F54 BF1BA315			DW	_INC,REGWD
1F58 BF1BA315			DW	_INC,REGWD
1F5C BF1BA315			DW	_INC,REGWD
1F60 BF1BA315			DW	_INC,REGWD
1F64 BF1BA315			DW	_INC,REGWD
1F68 BF1BA315			DW	_INC,REGWD
1F6C BF1BA315			DW	_INC,REGWD
1F70 E318A315			DW	_DEC,REGWD
1F74 E318A315			DW	_DEC,REGWD
1F78 E318A315			DW	_DEC,REGWD
1F7C E318A315			DW	_DEC,REGWD
1F80 E318A315			DW	_DEC,REGWD
1F84 E318A315			DW	_DEC,REGWD
1F88 E318A315			DW	_DEC,REGWD
1F8C E318A315			DW	_DEC,REGWD
1F90 591DA315			DW	_PUSH,REGWD
1F94 591DA315			DW	_PUSH,REGWD
1F98 591DA315			DW	_PUSH,REGWD
1F9C 591DA315			DW	_PUSH,REGWD
1FA0 591DA315			DW	_PUSH,REGWD
1FA4 591DA315			DW	_PUSH,REGWD
1FA8 591DA315			DW	_PUSH,REGWD
1FAC 591DA315			DW	_PUSH,REGWD
1FB0 461DA315			DW	_POP,REGWD
1FB4 461DA315			DW	_POP,REGWD
1FB8 461DA315			DW	_POP,REGWD
1FBC 461DA315			DW	_POP,REGWD
1FC0 461DA315			DW	_POP,REGWD
1FC4 461DA315			DW	_POP,REGWD
1FC8 461DA315			DW	_POP,REGWD
1FCC 461DA315			DW	_POP,REGWD
1FD0 D9185118			DW	_DB,INVD
1FD4 D9185118			DW	_DB,INVD
1FD8 D9185118			DW	_DB,INVD
1FDC D9185118			DW	_DB,INVD
1FE0 D9185118			DW	_DB,INVD
1FE4 D9185118			DW	_DB,INVD
1FE8 D9185118			DW	_DB,INVD
1FEC D9185118			DW	_DB,INVD
1FF0 D9185118			DW	_DB,INVD
1FF4 D9185118			DW	_DB,INVD
1FF8 D9185118			DW	_DB,INVD
1FFC D9185118			DW	_DB,INVD
2000 D9185118			DW	_DB,INVD
2004 D9185118			DW	_DB,INVD
2008 D9185118			DW	_DB,INVD
200C D9185118			DW	_DB,INVD
2010 7E1C3813			DW	_JO,RELBD
2014 661C3813			DW	_JNO,RELBD
2018 F91B3813			DW	_JC,RELBD
201C 401C3813			DW	_JNC,RELBD
2020 991C3813			DW	_JZ,RELBD
2024 781C3813			DW	_JNZ,RELBD
2028 261C3813			DW	_JNA,RELBD
202C E31B3813			DW	_JA,RELBD
2030 941C3813			DW	_JS,RELBD
2034 721C3813			DW	_JNS,RELBD
2038 831C3813			DW	_JP,RELBD
203C 6C1C3813			DW	_JNP,RELBD
2040 151C3813			DW	_JL,RELBD
2044 591C3813			DW	_JNL,RELBD
2048 4C1C3813			DW	_JNG,RELBD
204C 0A1C3813			DW	_JG,RELBD
2050 B827EF17			DW	_GRP,G01D
2054 B827EF17			DW	_GRP,G01D
2058 B827EF17			DW	_GRP,G01D
205C B827EF17			DW	_GRP,G01D
2060 261E5D15			DW	_TEST,MRD
2064 261E5D15			DW	_TEST,MRD
2068 3B1E5D15			DW	_XCHG,MRD
206C 3B1E5D15			DW	_XCHG,MRD
2070 F71C5D15			DW	_MOV,MRD
2074 F71C5D15			DW	_MOV,MRD
2078 F71C6E15			DW	_MOV,RMD
207C F71C6E15			DW	_MOV,RMD
2080 F71C7A15			DW	_MOV,MSD
2084 AB1C6E15			DW	_LEA,RMD
2088 F71C8B15			DW	_MOV,SMD
208C 461D4D18			DW	_POP,DISPD
2090 201D2415			DW	_NOP,SINGD
2094 3B1E9C15			DW	_XCHG,ACCRD
2098 3B1E9C15			DW	_XCHG,ACCRD
209C 3B1E9C15			DW	_XCHG,ACCRD
20A0 3B1E9C15			DW	_XCHG,ACCRD
20A4 3B1E9C15			DW	_XCHG,ACCRD
20A8 3B1E9C15			DW	_XCHG,ACCRD
20AC 3B1E9C15			DW	_XCHG,ACCRD
20B0 93182415			DW	_CBW,SINGD
20B4 C7182415			DW	_CWD,SINGD
20B8 8C189016			DW	_CALL,SEGOFD
20BC B827BD17			DW	_GRP,WAITD
20C0 601D2415			DW	_PUSHF,SINGD
20C4 4C1D2415			DW	_POPF,SINGD
20C8 B21D2415			DW	_SAHF,SINGD
20CC 9E1C2415			DW	_LAHF,SINGD
20D0 F71CB015			DW	_MOV,ACCMD
20D4 F71CB015			DW	_MOV,ACCMD
20D8 F71CC615			DW	_MOV,MACCD
20DC F71CC615			DW	_MOV,MACCD
20E0 FD1C2415			DW	_MOVSB,SINGD
20E4 051D2415			DW	_MOVSW,SINGD
20E8 B7182415			DW	_CMPSB,SINGD
20EC BF182415			DW	_CMPSW,SINGD
20F0 261E5515			DW	_TEST,ACCID
20F4 261E5515			DW	_TEST,ACCID
20F8 081E2415			DW	_STOSB,SINGD
20FC 101E2415			DW	_STOSW,SINGD
2100 BE1C2415			DW	_LODSB,SINGD
2104 C61C2415			DW	_LODSW,SINGD
2108 D21D2415			DW	_SCASB,SINGD
210C DA1D2415			DW	_SCASW,SINGD
2110 F71CE015			DW	_MOV,RIMMD
2114 F71CE015			DW	_MOV,RIMMD
2118 F71CE015			DW	_MOV,RIMMD
211C F71CE015			DW	_MOV,RIMMD
2120 F71CE015			DW	_MOV,RIMMD
2124 F71CE015			DW	_MOV,RIMMD
2128 F71CE015			DW	_MOV,RIMMD
212C F71CE015			DW	_MOV,RIMMD
2130 F71CE015			DW	_MOV,RIMMD
2134 F71CE015			DW	_MOV,RIMMD
2138 F71CE015			DW	_MOV,RIMMD
213C F71CE015			DW	_MOV,RIMMD
2140 F71CE015			DW	_MOV,RIMMD
2144 F71CE015			DW	_MOV,RIMMD
2148 F71CE015			DW	_MOV,RIMMD
214C F71CE015			DW	_MOV,RIMMD
2150 D9185118			DW	_DB,INVD
2154 D9185118			DW	_DB,INVD
2158 A01D5E16			DW	_RET,RETD
215C A01D2415			DW	_RET,SINGD
2160 B11C6915			DW	_LES,RWMD
2164 A51C6E15			DW	_LDS,RMD
2168 F71CD915			DW	_MOV,RMID
216C F71CD915			DW	_MOV,RMID
2170 D9185118			DW	_DB,INVD
2174 D9185118			DW	_DB,INVD
2178 A01D4D16			DW	_RET,RETFD
217C A01D4D16			DW	_RET,RETFD
2180 CF1B4916			DW	_INT,INT3D
2184 CF1B4316			DW	_INT,INTD
2188 D51B2415			DW	_INTO,SINGD
218C DC1B2415			DW	_IRET,SINGD
2190 B827CB17			DW	_GRP,G02D
2194 B827CB17			DW	_GRP,G02D
2198 B827CB17			DW	_GRP,G02D
219C B827CB17			DW	_GRP,G02D
21A0 67180816			DW	_AAM,AAMD
21A4 61180816			DW	_AAD,AAMD
21A8 BF1D2415			DW	_SALC,SINGD
21AC 421E2415			DW	_XLATB,SINGD
21B0 B8271316			DW	_GRP,ESCD
21B4 B8271316			DW	_GRP,ESCD
21B8 B8271316			DW	_GRP,ESCD
21BC B8271316			DW	_GRP,ESCD
21C0 B8271316			DW	_GRP,ESCD
21C4 B8271316			DW	_GRP,ESCD
21C8 B8271316			DW	_GRP,ESCD
21CC B8271316			DW	_GRP,ESCD
21D0 E61C3813			DW	_LOOPNZ,RELBD
21D4 EF1C3813			DW	_LOOPZ,RELBD
21D8 CE1C3813			DW	_LOOP,RELBD
21DC FE1B3813			DW	_JCXZ,RELBD
21E0 BA1B5515			DW	_IN,ACCID
21E4 BA1B5515			DW	_IN,ACCID
21E8 401D8216			DW	_OUT,IBAPD
21EC 401D8216			DW	_OUT,IBAPD
21F0 8C18FA15			DW	_CALL,RELWD
21F4 201CFA15			DW	_JMP,RELWD
21F8 201C9016			DW	_JMP,SEGOFD
21FC 201C3813			DW	_JMP,RELBD
2200 BA1B6316			DW	_IN,ADIOD
2204 BA1B6316			DW	_IN,ADIOD
2208 401D6316			DW	_OUT,ADIOD
220C 401D6316			DW	_OUT,ADIOD
2210 B71C2415			DW	_LOCK,SINGD
2214 D9185118			DW	_DB,INVD
2218 911D2415			DW	_REPNZ,SINGD
221C 991D2415			DW	_REPZ,SINGD
2220 A61B2415			DW	_HLT,SINGD
2224 AB182415			DW	_CMC,SINGD
2228 B827E417			DW	_GRP,G03D
222C B827E417			DW	_GRP,G03D
2230 99182415			DW	_CLC,SINGD
2234 F61D2415			DW	_STC,SINGD
2238 A5182415			DW	_CLI,SINGD
223C 021E2415			DW	_STI,SINGD
2240 9F182415			DW	_CLD,SINGD
2244 FC1D2415			DW	_STD,SINGD
2248 B8270E18			DW	_GRP,G04D
224C B8270E18			DW	_GRP,G04D
2250 				EVEN
2250 3319B316		BIN87	DW	_FADD,ARIFD
2254 841AB316			DW	_FMUL,ARIFD
2258 6619B316			DW	_FCOM,ARIFD
225C 6D19B316			DW	_FCOMP,ARIFD
2260 4D1BB316			DW	_FSUB,ARIFD
2264 5C1BB316			DW	_FSUBR,ARIFD
2268 9019B316			DW	_FDIV,ARIFD
226C 9F19B316			DW	_FDIVR,ARIFD
2270 3319B316			DW	_FADD,ARIFD
2274 841AB316			DW	_FMUL,ARIFD
2278 6619B316			DW	_FCOM,ARIFD
227C 6D19B316			DW	_FCOMP,ARIFD
2280 4D1BB316			DW	_FSUB,ARIFD
2284 5C1BB316			DW	_FSUBR,ARIFD
2288 9019B316			DW	_FDIV,ARIFD
228C 9F19B316			DW	_FDIVR,ARIFD
2290 3319B316			DW	_FADD,ARIFD
2294 841AB316			DW	_FMUL,ARIFD
2298 6619B316			DW	_FCOM,ARIFD
229C 6D19B316			DW	_FCOMP,ARIFD
22A0 4D1BB316			DW	_FSUB,ARIFD
22A4 5C1BB316			DW	_FSUBR,ARIFD
22A8 9019B316			DW	_FDIV,ARIFD
22AC 9F19B316			DW	_FDIVR,ARIFD
22B0 3319B316			DW	_FADD,ARIFD
22B4 841AB316			DW	_FMUL,ARIFD
22B8 6619AB13			DW	_FCOM,REGFD
22BC 6D19AB13			DW	_FCOMP,REGFD
22C0 4D1BB316			DW	_FSUB,ARIFD
22C4 5C1BB316			DW	_FSUBR,ARIFD
22C8 9019B316			DW	_FDIV,ARIFD
22CC 9F19B316			DW	_FDIVR,ARIFD
22D0 331A4F17			DW	_FLD,FLDD
22D4 1E191C17			DW	_ESC,INVFD
22D8 271B4F17			DW	_FST,FLDD
22DC 3E1B4F17			DW	_FSTP,FLDD
22E0 481A3617			DW	_FLDENV,DISPDD
22E4 401A3617			DW	_FLDCW,DISPDD
22E8 B8277317			DW	_GRP,FSD6
22EC B8277317			DW	_GRP,FSD6
22F0 331A4F17			DW	_FLD,FLDD
22F4 1E191C17			DW	_ESC,INVFD
22F8 271B4F17			DW	_FST,FLDD
22FC 3E1B4F17			DW	_FSTP,FLDD
2300 481A3617			DW	_FLDENV,DISPDD
2304 401A3617			DW	_FLDCW,DISPDD
2308 B8277317			DW	_GRP,FSD6
230C B8277317			DW	_GRP,FSD6
2310 331A4F17			DW	_FLD,FLDD
2314 1E191C17			DW	_ESC,INVFD
2318 271B4F17			DW	_FST,FLDD
231C 3E1B4F17			DW	_FSTP,FLDD
2320 481A3617			DW	_FLDENV,DISPDD
2324 401A3617			DW	_FLDCW,DISPDD
2328 B8277317			DW	_GRP,FSD6
232C B8277317			DW	_GRP,FSD6
2330 331A4F17			DW	_FLD,FLDD
2334 831BAB13			DW	_FXCH,REGFD
2338 B61A2415			DW	_FNOP,SINGD
233C 1E191C17			DW	_ESC,INVFD
2340 B827AF17			DW	_GRP,SGFD
2344 B827AF17			DW	_GRP,SGFD
2348 B827AF17			DW	_GRP,SGFD
234C B827AF17			DW	_GRP,SGFD
2350 C8199D17			DW	_FIADD,INTFD
2354 F9199D17			DW	_FIMUL,INTFD
2358 D0199D17			DW	_FICOM,INTFD
235C D8199D17			DW	_FICOMP,INTFD
2360 221A9D17			DW	_FISUB,INTFD
2364 2A1A9D17			DW	_FISUBR,INTFD
2368 E1199D17			DW	_FIDIV,INTFD
236C E9199D17			DW	_FIDIVR,INTFD
2370 C8199D17			DW	_FIADD,INTFD
2374 F9199D17			DW	_FIMUL,INTFD
2378 D0199D17			DW	_FICOM,INTFD
237C D8199D17			DW	_FICOMP,INTFD
2380 221A9D17			DW	_FISUB,INTFD
2384 2A1A9D17			DW	_FISUBR,INTFD
2388 E1199D17			DW	_FIDIV,INTFD
238C E9199D17			DW	_FIDIVR,INTFD
2390 C8199D17			DW	_FIADD,INTFD
2394 F9199D17			DW	_FIMUL,INTFD
2398 D0199D17			DW	_FICOM,INTFD
239C D8199D17			DW	_FICOMP,INTFD
23A0 221A9D17			DW	_FISUB,INTFD
23A4 2A1A9D17			DW	_FISUBR,INTFD
23A8 E1199D17			DW	_FIDIV,INTFD
23AC E9199D17			DW	_FIDIVR,INTFD
23B0 1E191C17			DW	_ESC,INVFD
23B4 1E191C17			DW	_ESC,INVFD
23B8 1E191C17			DW	_ESC,INVFD
23BC 1E191C17			DW	_ESC,INVFD
23C0 1E191C17			DW	_ESC,INVFD
23C4 1E191C17			DW	_ESC,INVFD
23C8 1E191C17			DW	_ESC,INVFD
23CC 1E191C17			DW	_ESC,INVFD
23D0 F2193C17			DW	_FILD,FILDD
23D4 1E191C17			DW	_ESC,INVFD
23D8 131A3C17			DW	_FIST,FILDD
23DC 1A1A3C17			DW	_FISTP,FILDD
23E0 1E191C17			DW	_ESC,INVFD
23E4 331A4F17			DW	_FLD,FLDD
23E8 1E191C17			DW	_ESC,INVFD
23EC 3E1B4F17			DW	_FSTP,FLDD
23F0 F2193C17			DW	_FILD,FILDD
23F4 1E191C17			DW	_ESC,INVFD
23F8 131A3C17			DW	_FIST,FILDD
23FC 1A1A3C17			DW	_FISTP,FILDD
2400 1E191C17			DW	_ESC,INVFD
2404 331A4F17			DW	_FLD,FLDD
2408 1E191C17			DW	_ESC,INVFD
240C 3E1B4F17			DW	_FSTP,FLDD
2410 F2193C17			DW	_FILD,FILDD
2414 1E191C17			DW	_ESC,INVFD
2418 131A3C17			DW	_FIST,FILDD
241C 1A1A3C17			DW	_FISTP,FILDD
2420 1E191C17			DW	_ESC,INVFD
2424 331A4F17			DW	_FLD,FLDD
2428 1E191C17			DW	_ESC,INVFD
242C 3E1B4F17			DW	_FSTP,FLDD
2430 1E191C17			DW	_ESC,INVFD
2434 1E191C17			DW	_ESC,INVFD
2438 1E191C17			DW	_ESC,INVFD
243C 1E191C17			DW	_ESC,INVFD
2440 B827ED16			DW	_GRP,FEND
2444 1E191C17			DW	_ESC,INVFD
2448 1E191C17			DW	_ESC,INVFD
244C 1E191C17			DW	_ESC,INVFD
2450 3319B316			DW	_FADD,ARIFD
2454 841AB316			DW	_FMUL,ARIFD
2458 6619B316			DW	_FCOM,ARIFD
245C 6D19B316			DW	_FCOMP,ARIFD
2460 4D1BB316			DW	_FSUB,ARIFD
2464 5C1BB316			DW	_FSUBR,ARIFD
2468 9019B316			DW	_FDIV,ARIFD
246C 9F19B316			DW	_FDIVR,ARIFD
2470 3319B316			DW	_FADD,ARIFD
2474 841AB316			DW	_FMUL,ARIFD
2478 6619B316			DW	_FCOM,ARIFD
247C 6D19B316			DW	_FCOMP,ARIFD
2480 4D1BB316			DW	_FSUB,ARIFD
2484 5C1BB316			DW	_FSUBR,ARIFD
2488 9019B316			DW	_FDIV,ARIFD
248C 9F19B316			DW	_FDIVR,ARIFD
2490 3319B316			DW	_FADD,ARIFD
2494 841AB316			DW	_FMUL,ARIFD
2498 6619B316			DW	_FCOM,ARIFD
249C 6D19B316			DW	_FCOMP,ARIFD
24A0 4D1BB316			DW	_FSUB,ARIFD
24A4 5C1BB316			DW	_FSUBR,ARIFD
24A8 9019B316			DW	_FDIV,ARIFD
24AC 9F19B316			DW	_FDIVR,ARIFD
24B0 3319B316			DW	_FADD,ARIFD
24B4 841AB316			DW	_FMUL,ARIFD
24B8 1E191C17			DW	_ESC,INVFD
24BC 1E191C17			DW	_ESC,INVFD
24C0 4D1BB316			DW	_FSUB,ARIFD
24C4 5C1BB316			DW	_FSUBR,ARIFD
24C8 9019B316			DW	_FDIV,ARIFD
24CC 9F19B316			DW	_FDIVR,ARIFD
24D0 331A4F17			DW	_FLD,FLDD
24D4 1E191C17			DW	_ESC,INVFD
24D8 271B4F17			DW	_FST,FLDD
24DC 3E1B4F17			DW	_FSTP,FLDD
24E0 051B3617			DW	_FRSTOR,DISPDD
24E4 1E191C17			DW	_ESC,INVFD
24E8 B8277817			DW	_GRP,FSD7
24EC B8277817			DW	_GRP,FSD7
24F0 331A4F17			DW	_FLD,FLDD
24F4 1E191C17			DW	_ESC,INVFD
24F8 271B4F17			DW	_FST,FLDD
24FC 3E1B4F17			DW	_FSTP,FLDD
2500 051B3617			DW	_FRSTOR,DISPDD
2504 1E191C17			DW	_ESC,INVFD
2508 B8277817			DW	_GRP,FSD7
250C B8277817			DW	_GRP,FSD7
2510 331A4F17			DW	_FLD,FLDD
2514 1E191C17			DW	_ESC,INVFD
2518 271B4F17			DW	_FST,FLDD
251C 3E1B4F17			DW	_FSTP,FLDD
2520 051B3617			DW	_FRSTOR,DISPDD
2524 1E191C17			DW	_ESC,INVFD
2528 B8277817			DW	_GRP,FSD7
252C B8277817			DW	_GRP,FSD7
2530 B719AB13			DW	_FFREE,REGFD
2534 1E191C17			DW	_ESC,INVFD
2538 271B4F17			DW	_FST,FLDD
253C 3E1B4F17			DW	_FSTP,FLDD
2540 1E191C17			DW	_ESC,INVFD
2544 1E191C17			DW	_ESC,INVFD
2548 1E191C17			DW	_ESC,INVFD
254C 1E191C17			DW	_ESC,INVFD
2550 C8199D17			DW	_FIADD,INTFD
2554 F9199D17			DW	_FIMUL,INTFD
2558 D0199D17			DW	_FICOM,INTFD
255C D8199D17			DW	_FICOMP,INTFD
2560 221A9D17			DW	_FISUB,INTFD
2564 2A1A9D17			DW	_FISUBR,INTFD
2568 E1199D17			DW	_FIDIV,INTFD
256C E9199D17			DW	_FIDIVR,INTFD
2570 C8199D17			DW	_FIADD,INTFD
2574 F9199D17			DW	_FIMUL,INTFD
2578 D0199D17			DW	_FICOM,INTFD
257C D8199D17			DW	_FICOMP,INTFD
2580 221A9D17			DW	_FISUB,INTFD
2584 2A1A9D17			DW	_FISUBR,INTFD
2588 E1199D17			DW	_FIDIV,INTFD
258C E9199D17			DW	_FIDIVR,INTFD
2590 C8199D17			DW	_FIADD,INTFD
2594 F9199D17			DW	_FIMUL,INTFD
2598 D0199D17			DW	_FICOM,INTFD
259C D8199D17			DW	_FICOMP,INTFD
25A0 221A9D17			DW	_FISUB,INTFD
25A4 2A1A9D17			DW	_FISUBR,INTFD
25A8 E1199D17			DW	_FIDIV,INTFD
25AC E9199D17			DW	_FIDIVR,INTFD
25B0 3A199D16			DW	_FADDP,APFD
25B4 8B1A9D16			DW	_FMULP,APFD
25B8 1E191C17			DW	_ESC,INVFD
25BC 75199D16			DW	_FCOMPP,APFD
25C0 641B9D16			DW	_FSUBRP,APFD
25C4 541B9D16			DW	_FSUBP,APFD
25C8 A7199D16			DW	_FDIVRP,APFD
25CC 97199D16			DW	_FDIVP,APFD
25D0 F2193C17			DW	_FILD,FILDD
25D4 1E191C17			DW	_ESC,INVFD
25D8 131A3C17			DW	_FIST,FILDD
25DC 1A1A3C17			DW	_FISTP,FILDD
25E0 48193617			DW	_FBLD,DISPDD
25E4 F2193C17			DW	_FILD,FILDD
25E8 4F193617			DW	_FBSTP,DISPDD
25EC 1A1A3C17			DW	_FISTP,FILDD
25F0 F2193C17			DW	_FILD,FILDD
25F4 1E191C17			DW	_ESC,INVFD
25F8 131A3C17			DW	_FIST,FILDD
25FC 1A1A3C17			DW	_FISTP,FILDD
2600 48193617			DW	_FBLD,DISPDD
2604 F2193C17			DW	_FILD,FILDD
2608 4F193617			DW	_FBSTP,DISPDD
260C 1A1A3C17			DW	_FISTP,FILDD
2610 F2193C17			DW	_FILD,FILDD
2614 1E191C17			DW	_ESC,INVFD
2618 131A3C17			DW	_FIST,FILDD
261C 1A1A3C17			DW	_FISTP,FILDD
2620 48193617			DW	_FBLD,DISPDD
2624 F2193C17			DW	_FILD,FILDD
2628 4F193617			DW	_FBSTP,DISPDD
262C 1A1A3C17			DW	_FISTP,FILDD
2630 BF19AB13			DW	_FFREEP,REGFD
2634 1E191C17			DW	_ESC,INVFD
2638 1E191C17			DW	_ESC,INVFD
263C 1E191C17			DW	_ESC,INVFD
2640 1E191C17			DW	_ESC,INVFD
2644 1E191C17			DW	_ESC,INVFD
2648 1E191C17			DW	_ESC,INVFD
264C 1E191C17			DW	_ESC,INVFD
2650 				EVEN
2650 0E0706FF		RM	DB	0EH,7,6,0FFH
2654 050103FF			DB	5,1,3,0FFH
2658 040002FF			DB	4,0,2,0FFH
265C FFFFFFFF			DB	0FFH,0FFH,0FFH,0FFH
2660 04040C0C		ARITB	DB	4,4,0CH,0CH
2664 00000000			DB	0,0,0,0
2668 242C2C25			DB	24H,2CH,2CH,25H
266C 343C3C34			DB	34H,3CH,3CH,34H
2670 01052B01		FLDTB	DB	1,5,2BH,1
2674 191D3B1D			DB	19H,1DH,3BH,1DH
2678 D127DD27EA27FB27	ERRM	DW	EM0,EM1,EM2,EM3
2680 0E281F2830283E28		DW	EM4,EM5,EM6,EM7
2688 5128612872288328		DW	EM8,EM9,EMA,EMB
2690 9228			DW	EMC
2692 C90ED60B340C700C	IHDL	DW	G0,G1,G2,G3
269A C50C230D4A0D0D0E		DW	G4,G5,G6,G7
26A2 2A0E370EBE0ECF0E		DW	G8,G9,G0AH,G0BH
26AA EB0E070F200F560F		DW	G0CH,G0DH,G0EH,G0FH
26B2 950FD30F0D101C10		DW	G10H,G11H,G12H,G13H
26BA 28103C0AC910E810		DW	G14H,G15H,G16H,G17H
26C2 F310311140117311		DW	G18H,G19H,G1AH,G1BH
26CA 9511A711B311D411		DW	G1CH,G1DH,G1EH,G1FH
26D2 FF111F123E126F12		DW	G20H,G21H,G22H,G23H
26DA E112			DW	G24H
26DC 7918351D7318CC1D	_G01D	DW	_ADD,_OR,_ADC,_SBB
26E4 7F18181E4A1EB118		DW	_AND,_SUB,_XOR,_CMP
26EC A61DAC1D701D761D	_G02D	DW	_ROL,_ROR,_RCL,_RCR
26F4 E21DF01DB91DC61D		DW	_SHL,_SHR,_SAL,_SAR
26FC 261E261E261D1A1D	_G03D	DW	_TEST,_TEST,_NOT,_NEG
2704 0D1DB31BE918AC1B		DW	_MUL,_IMUL,_DIV,_IDIV
270C BF1BE3188C188C18	_G04D	DW	_INC,_DEC,_CALL,_CALL
2714 201C201C591DD918		DW	_JMP,_JMP,_PUSH,_DB
271C 57192C19B827B827	_SGS	DW	_FCHS,_FABS,_GRP,_GRP
2724 6D1B7C1BB827B827		DW	_FTST,_FXAM,_GRP,_GRP
272C 391A5A1A511A751A		DW	_FLD1,_FLDL2T,_FLDL2E,_FLDPI
2734 631A6C1AB827B827		DW	_FLDLG2,_FLDLN2,_GRP,_GRP
273C 2419941BF31AE21A		DW	_F2XM1,_FYL2X,_FPTAN,_FPATAN
2744 8A1BB8277E19011A		DW	_FXTRACT,_GRP,_FDECSTP,_FINCSTP
274C EB1A9C1B1F1BB827		DW	_FPREM,_FYL2XP1,_FSQRT,_GRP
2754 FB1A161BB827B827		DW	_FRNDINT,_FSCALE,_GRP,_GRP
275C A51A9C1A931AAD1A	_SG5	DW	_FNENI,_FNDISI,_FNCLEX,_FNINIT
2764 B01988195E190B1A		DW	_FENI,_FDISI,_FCLEX,_FINIT
276C C61AD01A351B2D1B	_SG6	DW	_FNSTENV,_FNSTCW,_FSTENV,_FSTCW
2774 BD1AD91A0E1B451B	_SG7	DW	_FNSAVE,_FNSTSW,_FSAVE,_FSTSW
277C 8518341E0319681D	SIZES	DW	_BYTE,_WORD,_DWORD,_QWORD
2784 1E1E			DW	_TBYTE
2786 EBFBEDFD		_DISP	DB	0EBH,0FBH,0EDH,0FDH
278A 0E0F0D0B			DB	0EH,0FH,0DH,0BH
278E 414C434C444C424C	REGS	DB	"ALCLDLBLAHCHDHBH"
2796 4148434844484248
279E 4158435844584258		DB	"AXCXDXBXSPBPSIDI"
27A6 5350425053494449
27AE 4553435353534453		DB	"ESCSSSDSST"
27B6 5354
27B8 0000		_GRP	DB	0,0
27BA 0341534D		DOTASM	DB	3,"ASM"
27BE 03434F4D		DOTCOM	DB	3,"COM"
27C2 034C5354		DOTLST	DB	3,"LST"
27C6 04494E3A20		INM	DB	4,"IN: "
27CB 054F55543A20	OUTM	DB	5,"OUT: "
27D1 0B424144204F5045	EM0	DB	11,"BAD OPERAND"
27D9 52414E44
27DD 0C53594E54415820	EM1	DB	12,"SYNTAX ERROR"
27E5 4552524F52
27EA 1042414420444953	EM2	DB	16,"BAD DISPLACEMENT"
27F2 504C4143454D454E
27FA 54
27FB 124E4F5420414E20	EM3	DB	18,"NOT AN INSTRUCTION"
2803 494E535452554354
280B 494F4E
280E 10554E444546494E	EM4	DB	16,"UNDEFINED SYMBOL"
2816 45442053594D424F
281E 4C
281F 104F5554204F4620	EM5	DB	16,"OUT OF RANGE BY "
2827 52414E4745204259
282F 20
2830 0D53495A45204D49	EM6	DB	13,"SIZE MISMATCH"
2838 534D41544348
283E 12434F4E5354414E	EM7	DB	18,"CONSTANT TOO LARGE"
2846 5420544F4F204C41
284E 524745
2851 0F4D495353494E47	EM8	DB	15,"MISSING OPERAND"
2859 204F504552414E44
2861 1047415242414745	EM9	DB	16,"GARBAGE PAST END"
2869 205041535420454E
2871 44
2872 104455504C494341	EMA	DB	16,"DUPLICATE SYMBOL"
287A 54452053594D424F
2882 4C
2883 0E4552524F522052	EMB	DB	14,"ERROR READING "
288B 454144494E4720
2892 0D52455345525645	EMC	DB	13,"RESERVED WORD"
289A 4420574F5244
28A0 0820425954452853	BYTEM	DB	8," BYTE(S)"
28A8 29
28A9 50432D3732203830	AMSG	DB	"PC-72 8086 ASSEMBLER"
28B1 383620415353454D
28B9 424C4552
28BD 20312E303420464F		DB	" 1.04 FOR DOS",13,10,36
28C5 5220444F530D0A24
28CD 413732207B5B2F41	USAGE	DB	"A72 {[/A] | /D} [/L] <IN> "
28D5 5D207C202F447D20
28DD 5B2F4C5D203C494E
28E5 3E20
28E7 5B3C4F55543E5D20		DB	"[<OUT>] [<LIST>]",13,10,36
28EF 5B3C4C4953543E5D
28F7 0D0A24
28FA 42414420444F5320	DOSERR	DB	"BAD DOS VERSION",13,10,36
2902 56455253494F4E0D
290A 0A24
290C 			PC	DW	?,?
2910 			USIZE	DW	?
2912 			ERRS	DW	?
2914 			VORG	DW	?
2916 			FUNC	DB	?,?
2918 			STK	DW	?,?
291C 			FLAGS	DB	?
291D 			WADJ	DB	?,?
291F 			ARGS	DB	?,?,?
2922 			FPREF	DB	?
2923 			SEGPREF	DB	?
2924 			OPCODE	DB	?
2925 			MODRM	DB	?
2926 			DISP	DW	?
2928 			IMM	DW	?
292A 			OUTHDL	DW	?
292C 			LSTHDL	DW	?
292E 			INFILE	DS	20H
294E 			INCFILE	DS	20H
296E 			OUTFILE	DS	20H
298E 			LSTFILE	DS	20H
29AE 			INCLEV	DS	200H
2BAE 			TEMP	DS	80H
2C2E 			INPUT	DS	80H
2CAE 			OUTPUT	DS	80H
2D2E 			SYMBS	DS	2000H
